
Lab4.elf:     file format elf32-littlearm

Sections:
Idx Name          Size      VMA       LMA       File off  Algn
  0 .isr_vector   0000010c  08000000  08000000  00010000  2**0
                  CONTENTS, ALLOC, LOAD, READONLY, DATA
  1 .text         00003904  0800010c  0800010c  0001010c  2**2
                  CONTENTS, ALLOC, LOAD, READONLY, CODE
  2 .rodata       000000c0  08003a10  08003a10  00013a10  2**2
                  CONTENTS, ALLOC, LOAD, READONLY, DATA
  3 .ARM.extab    00000000  08003ad0  08003ad0  00020070  2**0
                  CONTENTS
  4 .ARM          00000000  08003ad0  08003ad0  00020070  2**0
                  CONTENTS
  5 .preinit_array 00000000  08003ad0  08003ad0  00020070  2**0
                  CONTENTS, ALLOC, LOAD, DATA
  6 .init_array   00000004  08003ad0  08003ad0  00013ad0  2**2
                  CONTENTS, ALLOC, LOAD, DATA
  7 .fini_array   00000004  08003ad4  08003ad4  00013ad4  2**2
                  CONTENTS, ALLOC, LOAD, DATA
  8 .data         00000070  20000000  08003ad8  00020000  2**2
                  CONTENTS, ALLOC, LOAD, DATA
  9 .bss          00000124  20000070  08003b48  00020070  2**2
                  ALLOC
 10 ._user_heap_stack 00000604  20000194  08003b48  00020194  2**0
                  ALLOC
 11 .ARM.attributes 00000029  00000000  00000000  00020070  2**0
                  CONTENTS, READONLY
 12 .debug_info   0000d6b1  00000000  00000000  00020099  2**0
                  CONTENTS, READONLY, DEBUGGING, OCTETS
 13 .debug_abbrev 000021d5  00000000  00000000  0002d74a  2**0
                  CONTENTS, READONLY, DEBUGGING, OCTETS
 14 .debug_aranges 00000db0  00000000  00000000  0002f920  2**3
                  CONTENTS, READONLY, DEBUGGING, OCTETS
 15 .debug_ranges 00000cc8  00000000  00000000  000306d0  2**3
                  CONTENTS, READONLY, DEBUGGING, OCTETS
 16 .debug_macro  00002d9d  00000000  00000000  00031398  2**0
                  CONTENTS, READONLY, DEBUGGING, OCTETS
 17 .debug_line   0000f76c  00000000  00000000  00034135  2**0
                  CONTENTS, READONLY, DEBUGGING, OCTETS
 18 .debug_str    00089634  00000000  00000000  000438a1  2**0
                  CONTENTS, READONLY, DEBUGGING, OCTETS
 19 .comment      00000050  00000000  00000000  000cced5  2**0
                  CONTENTS, READONLY
 20 .debug_frame  00003c28  00000000  00000000  000ccf28  2**2
                  CONTENTS, READONLY, DEBUGGING, OCTETS

Disassembly of section .text:

0800010c <__do_global_dtors_aux>:
 800010c:	b510      	push	{r4, lr}
 800010e:	4c05      	ldr	r4, [pc, #20]	; (8000124 <__do_global_dtors_aux+0x18>)
 8000110:	7823      	ldrb	r3, [r4, #0]
 8000112:	b933      	cbnz	r3, 8000122 <__do_global_dtors_aux+0x16>
 8000114:	4b04      	ldr	r3, [pc, #16]	; (8000128 <__do_global_dtors_aux+0x1c>)
 8000116:	b113      	cbz	r3, 800011e <__do_global_dtors_aux+0x12>
 8000118:	4804      	ldr	r0, [pc, #16]	; (800012c <__do_global_dtors_aux+0x20>)
 800011a:	f3af 8000 	nop.w
 800011e:	2301      	movs	r3, #1
 8000120:	7023      	strb	r3, [r4, #0]
 8000122:	bd10      	pop	{r4, pc}
 8000124:	20000070 	.word	0x20000070
 8000128:	00000000 	.word	0x00000000
 800012c:	080039f8 	.word	0x080039f8

08000130 <frame_dummy>:
 8000130:	b508      	push	{r3, lr}
 8000132:	4b03      	ldr	r3, [pc, #12]	; (8000140 <frame_dummy+0x10>)
 8000134:	b11b      	cbz	r3, 800013e <frame_dummy+0xe>
 8000136:	4903      	ldr	r1, [pc, #12]	; (8000144 <frame_dummy+0x14>)
 8000138:	4803      	ldr	r0, [pc, #12]	; (8000148 <frame_dummy+0x18>)
 800013a:	f3af 8000 	nop.w
 800013e:	bd08      	pop	{r3, pc}
 8000140:	00000000 	.word	0x00000000
 8000144:	20000074 	.word	0x20000074
 8000148:	080039f8 	.word	0x080039f8

0800014c <strlen>:
 800014c:	4603      	mov	r3, r0
 800014e:	f813 2b01 	ldrb.w	r2, [r3], #1
 8000152:	2a00      	cmp	r2, #0
 8000154:	d1fb      	bne.n	800014e <strlen+0x2>
 8000156:	1a18      	subs	r0, r3, r0
 8000158:	3801      	subs	r0, #1
 800015a:	4770      	bx	lr

0800015c <Input_Reading_Init>:

//These variable use for handling pressed more than one second.
uint8_t flagOneSec[NO_BUTTON];
short counterOneSec[NO_BUTTON];

void Input_Reading_Init(void){
 800015c:	b480      	push	{r7}
 800015e:	b083      	sub	sp, #12
 8000160:	af00      	add	r7, sp, #0
	for(short i = 0; i < NO_BUTTON; i++){
 8000162:	2300      	movs	r3, #0
 8000164:	80fb      	strh	r3, [r7, #6]
 8000166:	e021      	b.n	80001ac <Input_Reading_Init+0x50>
		filtered[i] = buffer0[i] = buffer1[i] = BUTTON_RELEASED;
 8000168:	f9b7 2006 	ldrsh.w	r2, [r7, #6]
 800016c:	4b14      	ldr	r3, [pc, #80]	; (80001c0 <Input_Reading_Init+0x64>)
 800016e:	2101      	movs	r1, #1
 8000170:	5499      	strb	r1, [r3, r2]
 8000172:	f9b7 3006 	ldrsh.w	r3, [r7, #6]
 8000176:	4912      	ldr	r1, [pc, #72]	; (80001c0 <Input_Reading_Init+0x64>)
 8000178:	5c89      	ldrb	r1, [r1, r2]
 800017a:	4a12      	ldr	r2, [pc, #72]	; (80001c4 <Input_Reading_Init+0x68>)
 800017c:	54d1      	strb	r1, [r2, r3]
 800017e:	f9b7 2006 	ldrsh.w	r2, [r7, #6]
 8000182:	4910      	ldr	r1, [pc, #64]	; (80001c4 <Input_Reading_Init+0x68>)
 8000184:	5cc9      	ldrb	r1, [r1, r3]
 8000186:	4b10      	ldr	r3, [pc, #64]	; (80001c8 <Input_Reading_Init+0x6c>)
 8000188:	5499      	strb	r1, [r3, r2]
		flagOneSec[i] = 0;
 800018a:	f9b7 3006 	ldrsh.w	r3, [r7, #6]
 800018e:	4a0f      	ldr	r2, [pc, #60]	; (80001cc <Input_Reading_Init+0x70>)
 8000190:	2100      	movs	r1, #0
 8000192:	54d1      	strb	r1, [r2, r3]
		counterOneSec[i] = 100;
 8000194:	f9b7 3006 	ldrsh.w	r3, [r7, #6]
 8000198:	4a0d      	ldr	r2, [pc, #52]	; (80001d0 <Input_Reading_Init+0x74>)
 800019a:	2164      	movs	r1, #100	; 0x64
 800019c:	f822 1013 	strh.w	r1, [r2, r3, lsl #1]
	for(short i = 0; i < NO_BUTTON; i++){
 80001a0:	f9b7 3006 	ldrsh.w	r3, [r7, #6]
 80001a4:	b29b      	uxth	r3, r3
 80001a6:	3301      	adds	r3, #1
 80001a8:	b29b      	uxth	r3, r3
 80001aa:	80fb      	strh	r3, [r7, #6]
 80001ac:	f9b7 3006 	ldrsh.w	r3, [r7, #6]
 80001b0:	2b00      	cmp	r3, #0
 80001b2:	ddd9      	ble.n	8000168 <Input_Reading_Init+0xc>
	}
}
 80001b4:	bf00      	nop
 80001b6:	bf00      	nop
 80001b8:	370c      	adds	r7, #12
 80001ba:	46bd      	mov	sp, r7
 80001bc:	bc80      	pop	{r7}
 80001be:	4770      	bx	lr
 80001c0:	20000094 	.word	0x20000094
 80001c4:	20000090 	.word	0x20000090
 80001c8:	2000008c 	.word	0x2000008c
 80001cc:	20000098 	.word	0x20000098
 80001d0:	2000009c 	.word	0x2000009c

080001d4 <main>:
/**
  * @brief  The application entry point.
  * @retval int
  */
int main(void)
{
 80001d4:	b580      	push	{r7, lr}
 80001d6:	af00      	add	r7, sp, #0
  /* USER CODE END 1 */

  /* MCU Configuration--------------------------------------------------------*/

  /* Reset of all peripherals, Initializes the Flash interface and the Systick. */
  HAL_Init();
 80001d8:	f000 fcde 	bl	8000b98 <HAL_Init>
  /* USER CODE BEGIN Init */

  /* USER CODE END Init */

  /* Configure the system clock */
  SystemClock_Config();
 80001dc:	f000 f850 	bl	8000280 <SystemClock_Config>
  /* USER CODE BEGIN SysInit */

  /* USER CODE END SysInit */

  /* Initialize all configured peripherals */
  MX_GPIO_Init();
 80001e0:	f000 f91c 	bl	800041c <MX_GPIO_Init>
  MX_TIM2_Init();
 80001e4:	f000 f8a4 	bl	8000330 <MX_TIM2_Init>
  MX_IWDG_Init();
 80001e8:	f000 f888 	bl	80002fc <MX_IWDG_Init>
  MX_USART1_UART_Init();
 80001ec:	f000 f8ec 	bl	80003c8 <MX_USART1_UART_Init>
  /* USER CODE BEGIN 2 */
  HAL_TIM_Base_Start_IT(&htim2);
 80001f0:	481b      	ldr	r0, [pc, #108]	; (8000260 <main+0x8c>)
 80001f2:	f001 fd89 	bl	8001d08 <HAL_TIM_Base_Start_IT>
  SCH_Init();
 80001f6:	f000 fa07 	bl	8000608 <SCH_Init>

  Input_Reading_Init();
 80001fa:	f7ff ffaf 	bl	800015c <Input_Reading_Init>


  //SCH_Add_Task(ReadingAndProcessingInput, 0, 10);
  SCH_Add_Task(Blinking_LED0, 10, 0);
 80001fe:	2200      	movs	r2, #0
 8000200:	210a      	movs	r1, #10
 8000202:	4818      	ldr	r0, [pc, #96]	; (8000264 <main+0x90>)
 8000204:	f000 fb18 	bl	8000838 <SCH_Add_Task>
  SCH_Add_Task(Blinking_LED1, 20, 500);
 8000208:	f44f 72fa 	mov.w	r2, #500	; 0x1f4
 800020c:	2114      	movs	r1, #20
 800020e:	4816      	ldr	r0, [pc, #88]	; (8000268 <main+0x94>)
 8000210:	f000 fb12 	bl	8000838 <SCH_Add_Task>
  SCH_Add_Task(Blinking_LED2, 30, 1000);
 8000214:	f44f 727a 	mov.w	r2, #1000	; 0x3e8
 8000218:	211e      	movs	r1, #30
 800021a:	4814      	ldr	r0, [pc, #80]	; (800026c <main+0x98>)
 800021c:	f000 fb0c 	bl	8000838 <SCH_Add_Task>
  SCH_Add_Task(Blinking_LED3, 40, 1500);
 8000220:	f240 52dc 	movw	r2, #1500	; 0x5dc
 8000224:	2128      	movs	r1, #40	; 0x28
 8000226:	4812      	ldr	r0, [pc, #72]	; (8000270 <main+0x9c>)
 8000228:	f000 fb06 	bl	8000838 <SCH_Add_Task>
  deletedTask = SCH_Add_Task(Blinking_LED4, 50, 1000);
 800022c:	f44f 727a 	mov.w	r2, #1000	; 0x3e8
 8000230:	2132      	movs	r1, #50	; 0x32
 8000232:	4810      	ldr	r0, [pc, #64]	; (8000274 <main+0xa0>)
 8000234:	f000 fb00 	bl	8000838 <SCH_Add_Task>
 8000238:	4603      	mov	r3, r0
 800023a:	4a0f      	ldr	r2, [pc, #60]	; (8000278 <main+0xa4>)
 800023c:	6013      	str	r3, [r2, #0]
  /* USER CODE BEGIN WHILE */

  while (1)
  {

	  isTaskJustRun = SCH_Dispatch_Tasks();
 800023e:	f000 fb15 	bl	800086c <SCH_Dispatch_Tasks>
 8000242:	4603      	mov	r3, r0
 8000244:	461a      	mov	r2, r3
 8000246:	4b0d      	ldr	r3, [pc, #52]	; (800027c <main+0xa8>)
 8000248:	701a      	strb	r2, [r3, #0]

	  //Get error code from SCH_Report_Status()
	  //Then give code for UART_Report_Status() to transmit string error.
	  UART_Report_Status(SCH_Report_Status());
 800024a:	f000 fb5b 	bl	8000904 <SCH_Report_Status>
 800024e:	4603      	mov	r3, r0
 8000250:	4618      	mov	r0, r3
 8000252:	f000 f969 	bl	8000528 <UART_Report_Status>

	  //Print timestamp when some task ran.
	  UART_Report_Timestamp();
 8000256:	f000 f9a7 	bl	80005a8 <UART_Report_Timestamp>

	  //Go to sleep if no task need to run
	  SCH_Sleep();
 800025a:	f000 fb3f 	bl	80008dc <SCH_Sleep>
	  isTaskJustRun = SCH_Dispatch_Tasks();
 800025e:	e7ee      	b.n	800023e <main+0x6a>
 8000260:	200000ac 	.word	0x200000ac
 8000264:	080004c5 	.word	0x080004c5
 8000268:	080004d9 	.word	0x080004d9
 800026c:	080004ed 	.word	0x080004ed
 8000270:	08000501 	.word	0x08000501
 8000274:	08000515 	.word	0x08000515
 8000278:	20000168 	.word	0x20000168
 800027c:	20000164 	.word	0x20000164

08000280 <SystemClock_Config>:
/**
  * @brief System Clock Configuration
  * @retval None
  */
void SystemClock_Config(void)
{
 8000280:	b580      	push	{r7, lr}
 8000282:	b090      	sub	sp, #64	; 0x40
 8000284:	af00      	add	r7, sp, #0
  RCC_OscInitTypeDef RCC_OscInitStruct = {0};
 8000286:	f107 0318 	add.w	r3, r7, #24
 800028a:	2228      	movs	r2, #40	; 0x28
 800028c:	2100      	movs	r1, #0
 800028e:	4618      	mov	r0, r3
 8000290:	f002 ff30 	bl	80030f4 <memset>
  RCC_ClkInitTypeDef RCC_ClkInitStruct = {0};
 8000294:	1d3b      	adds	r3, r7, #4
 8000296:	2200      	movs	r2, #0
 8000298:	601a      	str	r2, [r3, #0]
 800029a:	605a      	str	r2, [r3, #4]
 800029c:	609a      	str	r2, [r3, #8]
 800029e:	60da      	str	r2, [r3, #12]
 80002a0:	611a      	str	r2, [r3, #16]

  /** Initializes the RCC Oscillators according to the specified parameters
  * in the RCC_OscInitTypeDef structure.
  */
  RCC_OscInitStruct.OscillatorType = RCC_OSCILLATORTYPE_HSI|RCC_OSCILLATORTYPE_LSI;
 80002a2:	230a      	movs	r3, #10
 80002a4:	61bb      	str	r3, [r7, #24]
  RCC_OscInitStruct.HSIState = RCC_HSI_ON;
 80002a6:	2301      	movs	r3, #1
 80002a8:	62bb      	str	r3, [r7, #40]	; 0x28
  RCC_OscInitStruct.HSICalibrationValue = RCC_HSICALIBRATION_DEFAULT;
 80002aa:	2310      	movs	r3, #16
 80002ac:	62fb      	str	r3, [r7, #44]	; 0x2c
  RCC_OscInitStruct.LSIState = RCC_LSI_ON;
 80002ae:	2301      	movs	r3, #1
 80002b0:	633b      	str	r3, [r7, #48]	; 0x30
  RCC_OscInitStruct.PLL.PLLState = RCC_PLL_NONE;
 80002b2:	2300      	movs	r3, #0
 80002b4:	637b      	str	r3, [r7, #52]	; 0x34
  if (HAL_RCC_OscConfig(&RCC_OscInitStruct) != HAL_OK)
 80002b6:	f107 0318 	add.w	r3, r7, #24
 80002ba:	4618      	mov	r0, r3
 80002bc:	f001 f8c4 	bl	8001448 <HAL_RCC_OscConfig>
 80002c0:	4603      	mov	r3, r0
 80002c2:	2b00      	cmp	r3, #0
 80002c4:	d001      	beq.n	80002ca <SystemClock_Config+0x4a>
  {
    Error_Handler();
 80002c6:	f000 f999 	bl	80005fc <Error_Handler>
  }

  /** Initializes the CPU, AHB and APB buses clocks
  */
  RCC_ClkInitStruct.ClockType = RCC_CLOCKTYPE_HCLK|RCC_CLOCKTYPE_SYSCLK
 80002ca:	230f      	movs	r3, #15
 80002cc:	607b      	str	r3, [r7, #4]
                              |RCC_CLOCKTYPE_PCLK1|RCC_CLOCKTYPE_PCLK2;
  RCC_ClkInitStruct.SYSCLKSource = RCC_SYSCLKSOURCE_HSI;
 80002ce:	2300      	movs	r3, #0
 80002d0:	60bb      	str	r3, [r7, #8]
  RCC_ClkInitStruct.AHBCLKDivider = RCC_SYSCLK_DIV1;
 80002d2:	2300      	movs	r3, #0
 80002d4:	60fb      	str	r3, [r7, #12]
  RCC_ClkInitStruct.APB1CLKDivider = RCC_HCLK_DIV1;
 80002d6:	2300      	movs	r3, #0
 80002d8:	613b      	str	r3, [r7, #16]
  RCC_ClkInitStruct.APB2CLKDivider = RCC_HCLK_DIV1;
 80002da:	2300      	movs	r3, #0
 80002dc:	617b      	str	r3, [r7, #20]

  if (HAL_RCC_ClockConfig(&RCC_ClkInitStruct, FLASH_LATENCY_0) != HAL_OK)
 80002de:	1d3b      	adds	r3, r7, #4
 80002e0:	2100      	movs	r1, #0
 80002e2:	4618      	mov	r0, r3
 80002e4:	f001 fb32 	bl	800194c <HAL_RCC_ClockConfig>
 80002e8:	4603      	mov	r3, r0
 80002ea:	2b00      	cmp	r3, #0
 80002ec:	d001      	beq.n	80002f2 <SystemClock_Config+0x72>
  {
    Error_Handler();
 80002ee:	f000 f985 	bl	80005fc <Error_Handler>
  }
}
 80002f2:	bf00      	nop
 80002f4:	3740      	adds	r7, #64	; 0x40
 80002f6:	46bd      	mov	sp, r7
 80002f8:	bd80      	pop	{r7, pc}
	...

080002fc <MX_IWDG_Init>:
  * @brief IWDG Initialization Function
  * @param None
  * @retval None
  */
static void MX_IWDG_Init(void)
{
 80002fc:	b580      	push	{r7, lr}
 80002fe:	af00      	add	r7, sp, #0
  /* USER CODE END IWDG_Init 0 */

  /* USER CODE BEGIN IWDG_Init 1 */

  /* USER CODE END IWDG_Init 1 */
  hiwdg.Instance = IWDG;
 8000300:	4b09      	ldr	r3, [pc, #36]	; (8000328 <MX_IWDG_Init+0x2c>)
 8000302:	4a0a      	ldr	r2, [pc, #40]	; (800032c <MX_IWDG_Init+0x30>)
 8000304:	601a      	str	r2, [r3, #0]
  hiwdg.Init.Prescaler = IWDG_PRESCALER_32;
 8000306:	4b08      	ldr	r3, [pc, #32]	; (8000328 <MX_IWDG_Init+0x2c>)
 8000308:	2203      	movs	r2, #3
 800030a:	605a      	str	r2, [r3, #4]
  hiwdg.Init.Reload = 63;
 800030c:	4b06      	ldr	r3, [pc, #24]	; (8000328 <MX_IWDG_Init+0x2c>)
 800030e:	223f      	movs	r2, #63	; 0x3f
 8000310:	609a      	str	r2, [r3, #8]
  if (HAL_IWDG_Init(&hiwdg) != HAL_OK)
 8000312:	4805      	ldr	r0, [pc, #20]	; (8000328 <MX_IWDG_Init+0x2c>)
 8000314:	f001 f82b 	bl	800136e <HAL_IWDG_Init>
 8000318:	4603      	mov	r3, r0
 800031a:	2b00      	cmp	r3, #0
 800031c:	d001      	beq.n	8000322 <MX_IWDG_Init+0x26>
  {
    Error_Handler();
 800031e:	f000 f96d 	bl	80005fc <Error_Handler>
  }
  /* USER CODE BEGIN IWDG_Init 2 */

  /* USER CODE END IWDG_Init 2 */

}
 8000322:	bf00      	nop
 8000324:	bd80      	pop	{r7, pc}
 8000326:	bf00      	nop
 8000328:	200000a0 	.word	0x200000a0
 800032c:	40003000 	.word	0x40003000

08000330 <MX_TIM2_Init>:
  * @brief TIM2 Initialization Function
  * @param None
  * @retval None
  */
static void MX_TIM2_Init(void)
{
 8000330:	b580      	push	{r7, lr}
 8000332:	b086      	sub	sp, #24
 8000334:	af00      	add	r7, sp, #0

  /* USER CODE BEGIN TIM2_Init 0 */

  /* USER CODE END TIM2_Init 0 */

  TIM_ClockConfigTypeDef sClockSourceConfig = {0};
 8000336:	f107 0308 	add.w	r3, r7, #8
 800033a:	2200      	movs	r2, #0
 800033c:	601a      	str	r2, [r3, #0]
 800033e:	605a      	str	r2, [r3, #4]
 8000340:	609a      	str	r2, [r3, #8]
 8000342:	60da      	str	r2, [r3, #12]
  TIM_MasterConfigTypeDef sMasterConfig = {0};
 8000344:	463b      	mov	r3, r7
 8000346:	2200      	movs	r2, #0
 8000348:	601a      	str	r2, [r3, #0]
 800034a:	605a      	str	r2, [r3, #4]

  /* USER CODE BEGIN TIM2_Init 1 */

  /* USER CODE END TIM2_Init 1 */
  htim2.Instance = TIM2;
 800034c:	4b1d      	ldr	r3, [pc, #116]	; (80003c4 <MX_TIM2_Init+0x94>)
 800034e:	f04f 4280 	mov.w	r2, #1073741824	; 0x40000000
 8000352:	601a      	str	r2, [r3, #0]
  htim2.Init.Prescaler = 7999;
 8000354:	4b1b      	ldr	r3, [pc, #108]	; (80003c4 <MX_TIM2_Init+0x94>)
 8000356:	f641 723f 	movw	r2, #7999	; 0x1f3f
 800035a:	605a      	str	r2, [r3, #4]
  htim2.Init.CounterMode = TIM_COUNTERMODE_UP;
 800035c:	4b19      	ldr	r3, [pc, #100]	; (80003c4 <MX_TIM2_Init+0x94>)
 800035e:	2200      	movs	r2, #0
 8000360:	609a      	str	r2, [r3, #8]
  htim2.Init.Period = 9;
 8000362:	4b18      	ldr	r3, [pc, #96]	; (80003c4 <MX_TIM2_Init+0x94>)
 8000364:	2209      	movs	r2, #9
 8000366:	60da      	str	r2, [r3, #12]
  htim2.Init.ClockDivision = TIM_CLOCKDIVISION_DIV1;
 8000368:	4b16      	ldr	r3, [pc, #88]	; (80003c4 <MX_TIM2_Init+0x94>)
 800036a:	2200      	movs	r2, #0
 800036c:	611a      	str	r2, [r3, #16]
  htim2.Init.AutoReloadPreload = TIM_AUTORELOAD_PRELOAD_DISABLE;
 800036e:	4b15      	ldr	r3, [pc, #84]	; (80003c4 <MX_TIM2_Init+0x94>)
 8000370:	2200      	movs	r2, #0
 8000372:	619a      	str	r2, [r3, #24]
  if (HAL_TIM_Base_Init(&htim2) != HAL_OK)
 8000374:	4813      	ldr	r0, [pc, #76]	; (80003c4 <MX_TIM2_Init+0x94>)
 8000376:	f001 fc77 	bl	8001c68 <HAL_TIM_Base_Init>
 800037a:	4603      	mov	r3, r0
 800037c:	2b00      	cmp	r3, #0
 800037e:	d001      	beq.n	8000384 <MX_TIM2_Init+0x54>
  {
    Error_Handler();
 8000380:	f000 f93c 	bl	80005fc <Error_Handler>
  }
  sClockSourceConfig.ClockSource = TIM_CLOCKSOURCE_INTERNAL;
 8000384:	f44f 5380 	mov.w	r3, #4096	; 0x1000
 8000388:	60bb      	str	r3, [r7, #8]
  if (HAL_TIM_ConfigClockSource(&htim2, &sClockSourceConfig) != HAL_OK)
 800038a:	f107 0308 	add.w	r3, r7, #8
 800038e:	4619      	mov	r1, r3
 8000390:	480c      	ldr	r0, [pc, #48]	; (80003c4 <MX_TIM2_Init+0x94>)
 8000392:	f001 fe0d 	bl	8001fb0 <HAL_TIM_ConfigClockSource>
 8000396:	4603      	mov	r3, r0
 8000398:	2b00      	cmp	r3, #0
 800039a:	d001      	beq.n	80003a0 <MX_TIM2_Init+0x70>
  {
    Error_Handler();
 800039c:	f000 f92e 	bl	80005fc <Error_Handler>
  }
  sMasterConfig.MasterOutputTrigger = TIM_TRGO_RESET;
 80003a0:	2300      	movs	r3, #0
 80003a2:	603b      	str	r3, [r7, #0]
  sMasterConfig.MasterSlaveMode = TIM_MASTERSLAVEMODE_DISABLE;
 80003a4:	2300      	movs	r3, #0
 80003a6:	607b      	str	r3, [r7, #4]
  if (HAL_TIMEx_MasterConfigSynchronization(&htim2, &sMasterConfig) != HAL_OK)
 80003a8:	463b      	mov	r3, r7
 80003aa:	4619      	mov	r1, r3
 80003ac:	4805      	ldr	r0, [pc, #20]	; (80003c4 <MX_TIM2_Init+0x94>)
 80003ae:	f001 ffd9 	bl	8002364 <HAL_TIMEx_MasterConfigSynchronization>
 80003b2:	4603      	mov	r3, r0
 80003b4:	2b00      	cmp	r3, #0
 80003b6:	d001      	beq.n	80003bc <MX_TIM2_Init+0x8c>
  {
    Error_Handler();
 80003b8:	f000 f920 	bl	80005fc <Error_Handler>
  }
  /* USER CODE BEGIN TIM2_Init 2 */

  /* USER CODE END TIM2_Init 2 */

}
 80003bc:	bf00      	nop
 80003be:	3718      	adds	r7, #24
 80003c0:	46bd      	mov	sp, r7
 80003c2:	bd80      	pop	{r7, pc}
 80003c4:	200000ac 	.word	0x200000ac

080003c8 <MX_USART1_UART_Init>:
  * @brief USART1 Initialization Function
  * @param None
  * @retval None
  */
static void MX_USART1_UART_Init(void)
{
 80003c8:	b580      	push	{r7, lr}
 80003ca:	af00      	add	r7, sp, #0
  /* USER CODE END USART1_Init 0 */

  /* USER CODE BEGIN USART1_Init 1 */

  /* USER CODE END USART1_Init 1 */
  huart1.Instance = USART1;
 80003cc:	4b11      	ldr	r3, [pc, #68]	; (8000414 <MX_USART1_UART_Init+0x4c>)
 80003ce:	4a12      	ldr	r2, [pc, #72]	; (8000418 <MX_USART1_UART_Init+0x50>)
 80003d0:	601a      	str	r2, [r3, #0]
  huart1.Init.BaudRate = 9600;
 80003d2:	4b10      	ldr	r3, [pc, #64]	; (8000414 <MX_USART1_UART_Init+0x4c>)
 80003d4:	f44f 5216 	mov.w	r2, #9600	; 0x2580
 80003d8:	605a      	str	r2, [r3, #4]
  huart1.Init.WordLength = UART_WORDLENGTH_8B;
 80003da:	4b0e      	ldr	r3, [pc, #56]	; (8000414 <MX_USART1_UART_Init+0x4c>)
 80003dc:	2200      	movs	r2, #0
 80003de:	609a      	str	r2, [r3, #8]
  huart1.Init.StopBits = UART_STOPBITS_1;
 80003e0:	4b0c      	ldr	r3, [pc, #48]	; (8000414 <MX_USART1_UART_Init+0x4c>)
 80003e2:	2200      	movs	r2, #0
 80003e4:	60da      	str	r2, [r3, #12]
  huart1.Init.Parity = UART_PARITY_NONE;
 80003e6:	4b0b      	ldr	r3, [pc, #44]	; (8000414 <MX_USART1_UART_Init+0x4c>)
 80003e8:	2200      	movs	r2, #0
 80003ea:	611a      	str	r2, [r3, #16]
  huart1.Init.Mode = UART_MODE_TX_RX;
 80003ec:	4b09      	ldr	r3, [pc, #36]	; (8000414 <MX_USART1_UART_Init+0x4c>)
 80003ee:	220c      	movs	r2, #12
 80003f0:	615a      	str	r2, [r3, #20]
  huart1.Init.HwFlowCtl = UART_HWCONTROL_NONE;
 80003f2:	4b08      	ldr	r3, [pc, #32]	; (8000414 <MX_USART1_UART_Init+0x4c>)
 80003f4:	2200      	movs	r2, #0
 80003f6:	619a      	str	r2, [r3, #24]
  huart1.Init.OverSampling = UART_OVERSAMPLING_16;
 80003f8:	4b06      	ldr	r3, [pc, #24]	; (8000414 <MX_USART1_UART_Init+0x4c>)
 80003fa:	2200      	movs	r2, #0
 80003fc:	61da      	str	r2, [r3, #28]
  if (HAL_UART_Init(&huart1) != HAL_OK)
 80003fe:	4805      	ldr	r0, [pc, #20]	; (8000414 <MX_USART1_UART_Init+0x4c>)
 8000400:	f002 f81a 	bl	8002438 <HAL_UART_Init>
 8000404:	4603      	mov	r3, r0
 8000406:	2b00      	cmp	r3, #0
 8000408:	d001      	beq.n	800040e <MX_USART1_UART_Init+0x46>
  {
    Error_Handler();
 800040a:	f000 f8f7 	bl	80005fc <Error_Handler>
  }
  /* USER CODE BEGIN USART1_Init 2 */

  /* USER CODE END USART1_Init 2 */

}
 800040e:	bf00      	nop
 8000410:	bd80      	pop	{r7, pc}
 8000412:	bf00      	nop
 8000414:	200000f4 	.word	0x200000f4
 8000418:	40013800 	.word	0x40013800

0800041c <MX_GPIO_Init>:
  * @brief GPIO Initialization Function
  * @param None
  * @retval None
  */
static void MX_GPIO_Init(void)
{
 800041c:	b580      	push	{r7, lr}
 800041e:	b086      	sub	sp, #24
 8000420:	af00      	add	r7, sp, #0
  GPIO_InitTypeDef GPIO_InitStruct = {0};
 8000422:	f107 0308 	add.w	r3, r7, #8
 8000426:	2200      	movs	r2, #0
 8000428:	601a      	str	r2, [r3, #0]
 800042a:	605a      	str	r2, [r3, #4]
 800042c:	609a      	str	r2, [r3, #8]
 800042e:	60da      	str	r2, [r3, #12]

  /* GPIO Ports Clock Enable */
  __HAL_RCC_GPIOA_CLK_ENABLE();
 8000430:	4b17      	ldr	r3, [pc, #92]	; (8000490 <MX_GPIO_Init+0x74>)
 8000432:	699b      	ldr	r3, [r3, #24]
 8000434:	4a16      	ldr	r2, [pc, #88]	; (8000490 <MX_GPIO_Init+0x74>)
 8000436:	f043 0304 	orr.w	r3, r3, #4
 800043a:	6193      	str	r3, [r2, #24]
 800043c:	4b14      	ldr	r3, [pc, #80]	; (8000490 <MX_GPIO_Init+0x74>)
 800043e:	699b      	ldr	r3, [r3, #24]
 8000440:	f003 0304 	and.w	r3, r3, #4
 8000444:	607b      	str	r3, [r7, #4]
 8000446:	687b      	ldr	r3, [r7, #4]

  /*Configure GPIO pin Output Level */
  HAL_GPIO_WritePin(GPIOA, LED0_Pin|LED1_Pin|LED2_Pin|LED3_Pin
 8000448:	2200      	movs	r2, #0
 800044a:	213e      	movs	r1, #62	; 0x3e
 800044c:	4811      	ldr	r0, [pc, #68]	; (8000494 <MX_GPIO_Init+0x78>)
 800044e:	f000 ff5d 	bl	800130c <HAL_GPIO_WritePin>
                          |LED4_Pin, GPIO_PIN_RESET);

  /*Configure GPIO pins : LED0_Pin LED1_Pin LED2_Pin LED3_Pin
                           LED4_Pin */
  GPIO_InitStruct.Pin = LED0_Pin|LED1_Pin|LED2_Pin|LED3_Pin
 8000452:	233e      	movs	r3, #62	; 0x3e
 8000454:	60bb      	str	r3, [r7, #8]
                          |LED4_Pin;
  GPIO_InitStruct.Mode = GPIO_MODE_OUTPUT_PP;
 8000456:	2301      	movs	r3, #1
 8000458:	60fb      	str	r3, [r7, #12]
  GPIO_InitStruct.Pull = GPIO_NOPULL;
 800045a:	2300      	movs	r3, #0
 800045c:	613b      	str	r3, [r7, #16]
  GPIO_InitStruct.Speed = GPIO_SPEED_FREQ_LOW;
 800045e:	2302      	movs	r3, #2
 8000460:	617b      	str	r3, [r7, #20]
  HAL_GPIO_Init(GPIOA, &GPIO_InitStruct);
 8000462:	f107 0308 	add.w	r3, r7, #8
 8000466:	4619      	mov	r1, r3
 8000468:	480a      	ldr	r0, [pc, #40]	; (8000494 <MX_GPIO_Init+0x78>)
 800046a:	f000 fdd3 	bl	8001014 <HAL_GPIO_Init>

  /*Configure GPIO pin : BTN_Pin */
  GPIO_InitStruct.Pin = BTN_Pin;
 800046e:	2340      	movs	r3, #64	; 0x40
 8000470:	60bb      	str	r3, [r7, #8]
  GPIO_InitStruct.Mode = GPIO_MODE_INPUT;
 8000472:	2300      	movs	r3, #0
 8000474:	60fb      	str	r3, [r7, #12]
  GPIO_InitStruct.Pull = GPIO_PULLUP;
 8000476:	2301      	movs	r3, #1
 8000478:	613b      	str	r3, [r7, #16]
  HAL_GPIO_Init(BTN_GPIO_Port, &GPIO_InitStruct);
 800047a:	f107 0308 	add.w	r3, r7, #8
 800047e:	4619      	mov	r1, r3
 8000480:	4804      	ldr	r0, [pc, #16]	; (8000494 <MX_GPIO_Init+0x78>)
 8000482:	f000 fdc7 	bl	8001014 <HAL_GPIO_Init>

}
 8000486:	bf00      	nop
 8000488:	3718      	adds	r7, #24
 800048a:	46bd      	mov	sp, r7
 800048c:	bd80      	pop	{r7, pc}
 800048e:	bf00      	nop
 8000490:	40021000 	.word	0x40021000
 8000494:	40010800 	.word	0x40010800

08000498 <HAL_TIM_PeriodElapsedCallback>:

/* USER CODE BEGIN 4 */
void HAL_TIM_PeriodElapsedCallback(TIM_HandleTypeDef * htim){
 8000498:	b580      	push	{r7, lr}
 800049a:	b082      	sub	sp, #8
 800049c:	af00      	add	r7, sp, #0
 800049e:	6078      	str	r0, [r7, #4]
	SCH_Update();
 80004a0:	f000 f8d2 	bl	8000648 <SCH_Update>
	timestamp++;
 80004a4:	4b05      	ldr	r3, [pc, #20]	; (80004bc <HAL_TIM_PeriodElapsedCallback+0x24>)
 80004a6:	681b      	ldr	r3, [r3, #0]
 80004a8:	3301      	adds	r3, #1
 80004aa:	4a04      	ldr	r2, [pc, #16]	; (80004bc <HAL_TIM_PeriodElapsedCallback+0x24>)
 80004ac:	6013      	str	r3, [r2, #0]
	HAL_IWDG_Refresh(&hiwdg);
 80004ae:	4804      	ldr	r0, [pc, #16]	; (80004c0 <HAL_TIM_PeriodElapsedCallback+0x28>)
 80004b0:	f000 ff9f 	bl	80013f2 <HAL_IWDG_Refresh>
}
 80004b4:	bf00      	nop
 80004b6:	3708      	adds	r7, #8
 80004b8:	46bd      	mov	sp, r7
 80004ba:	bd80      	pop	{r7, pc}
 80004bc:	2000013c 	.word	0x2000013c
 80004c0:	200000a0 	.word	0x200000a0

080004c4 <Blinking_LED0>:
void Blinking_LED0(void){
 80004c4:	b580      	push	{r7, lr}
 80004c6:	af00      	add	r7, sp, #0
	HAL_GPIO_TogglePin(GPIOA, LED0_Pin);
 80004c8:	2102      	movs	r1, #2
 80004ca:	4802      	ldr	r0, [pc, #8]	; (80004d4 <Blinking_LED0+0x10>)
 80004cc:	f000 ff36 	bl	800133c <HAL_GPIO_TogglePin>
}
 80004d0:	bf00      	nop
 80004d2:	bd80      	pop	{r7, pc}
 80004d4:	40010800 	.word	0x40010800

080004d8 <Blinking_LED1>:
void Blinking_LED1(void){
 80004d8:	b580      	push	{r7, lr}
 80004da:	af00      	add	r7, sp, #0
	HAL_GPIO_TogglePin(GPIOA, LED1_Pin);
 80004dc:	2104      	movs	r1, #4
 80004de:	4802      	ldr	r0, [pc, #8]	; (80004e8 <Blinking_LED1+0x10>)
 80004e0:	f000 ff2c 	bl	800133c <HAL_GPIO_TogglePin>
}
 80004e4:	bf00      	nop
 80004e6:	bd80      	pop	{r7, pc}
 80004e8:	40010800 	.word	0x40010800

080004ec <Blinking_LED2>:
void Blinking_LED2(void){
 80004ec:	b580      	push	{r7, lr}
 80004ee:	af00      	add	r7, sp, #0
	HAL_GPIO_TogglePin(GPIOA, LED2_Pin);
 80004f0:	2108      	movs	r1, #8
 80004f2:	4802      	ldr	r0, [pc, #8]	; (80004fc <Blinking_LED2+0x10>)
 80004f4:	f000 ff22 	bl	800133c <HAL_GPIO_TogglePin>
}
 80004f8:	bf00      	nop
 80004fa:	bd80      	pop	{r7, pc}
 80004fc:	40010800 	.word	0x40010800

08000500 <Blinking_LED3>:
void Blinking_LED3(void){
 8000500:	b580      	push	{r7, lr}
 8000502:	af00      	add	r7, sp, #0
	HAL_GPIO_TogglePin(GPIOA, LED3_Pin);
 8000504:	2110      	movs	r1, #16
 8000506:	4802      	ldr	r0, [pc, #8]	; (8000510 <Blinking_LED3+0x10>)
 8000508:	f000 ff18 	bl	800133c <HAL_GPIO_TogglePin>
}
 800050c:	bf00      	nop
 800050e:	bd80      	pop	{r7, pc}
 8000510:	40010800 	.word	0x40010800

08000514 <Blinking_LED4>:
void Blinking_LED4(void){
 8000514:	b580      	push	{r7, lr}
 8000516:	af00      	add	r7, sp, #0
	HAL_GPIO_TogglePin(GPIOA, LED4_Pin);
 8000518:	2120      	movs	r1, #32
 800051a:	4802      	ldr	r0, [pc, #8]	; (8000524 <Blinking_LED4+0x10>)
 800051c:	f000 ff0e 	bl	800133c <HAL_GPIO_TogglePin>
}
 8000520:	bf00      	nop
 8000522:	bd80      	pop	{r7, pc}
 8000524:	40010800 	.word	0x40010800

08000528 <UART_Report_Status>:
	FSM_ForInputProcessing(deleteTaskBlinkingLED4, BTN);
}
void deleteTaskBlinkingLED4(void){
	SCH_Delete_Task(deletedTask);
}
void UART_Report_Status(uint8_t errorCode){
 8000528:	b590      	push	{r4, r7, lr}
 800052a:	b083      	sub	sp, #12
 800052c:	af00      	add	r7, sp, #0
 800052e:	4603      	mov	r3, r0
 8000530:	71fb      	strb	r3, [r7, #7]
	switch(errorCode){
 8000532:	79fb      	ldrb	r3, [r7, #7]
 8000534:	2b02      	cmp	r3, #2
 8000536:	d00e      	beq.n	8000556 <UART_Report_Status+0x2e>
 8000538:	2b02      	cmp	r3, #2
 800053a:	dc10      	bgt.n	800055e <UART_Report_Status+0x36>
 800053c:	2b00      	cmp	r3, #0
 800053e:	d002      	beq.n	8000546 <UART_Report_Status+0x1e>
 8000540:	2b01      	cmp	r3, #1
 8000542:	d004      	beq.n	800054e <UART_Report_Status+0x26>
 8000544:	e00b      	b.n	800055e <UART_Report_Status+0x36>
	case NO_ERROR:
		strError = "";
 8000546:	4b12      	ldr	r3, [pc, #72]	; (8000590 <UART_Report_Status+0x68>)
 8000548:	4a12      	ldr	r2, [pc, #72]	; (8000594 <UART_Report_Status+0x6c>)
 800054a:	601a      	str	r2, [r3, #0]
		break;
 800054c:	e00a      	b.n	8000564 <UART_Report_Status+0x3c>
	case ERROR_SCH_TOO_MANY_TASKS:
		strError = "ERROR: Too many tasks\r\n";
 800054e:	4b10      	ldr	r3, [pc, #64]	; (8000590 <UART_Report_Status+0x68>)
 8000550:	4a11      	ldr	r2, [pc, #68]	; (8000598 <UART_Report_Status+0x70>)
 8000552:	601a      	str	r2, [r3, #0]
		break;
 8000554:	e006      	b.n	8000564 <UART_Report_Status+0x3c>
	case ERROR_SCH_DELETE_NULL_TASK:
		strError = "ERROR: Delete null task\r\n";
 8000556:	4b0e      	ldr	r3, [pc, #56]	; (8000590 <UART_Report_Status+0x68>)
 8000558:	4a10      	ldr	r2, [pc, #64]	; (800059c <UART_Report_Status+0x74>)
 800055a:	601a      	str	r2, [r3, #0]
		break;
 800055c:	e002      	b.n	8000564 <UART_Report_Status+0x3c>
	default:
		strError = "ERROR: Unknown error\r\n";
 800055e:	4b0c      	ldr	r3, [pc, #48]	; (8000590 <UART_Report_Status+0x68>)
 8000560:	4a0f      	ldr	r2, [pc, #60]	; (80005a0 <UART_Report_Status+0x78>)
 8000562:	601a      	str	r2, [r3, #0]
	}
	if (errorCode)
 8000564:	79fb      	ldrb	r3, [r7, #7]
 8000566:	2b00      	cmp	r3, #0
 8000568:	d00d      	beq.n	8000586 <UART_Report_Status+0x5e>
		HAL_UART_Transmit(&huart1, (uint8_t*) strError, strlen(strError), 250);
 800056a:	4b09      	ldr	r3, [pc, #36]	; (8000590 <UART_Report_Status+0x68>)
 800056c:	681c      	ldr	r4, [r3, #0]
 800056e:	4b08      	ldr	r3, [pc, #32]	; (8000590 <UART_Report_Status+0x68>)
 8000570:	681b      	ldr	r3, [r3, #0]
 8000572:	4618      	mov	r0, r3
 8000574:	f7ff fdea 	bl	800014c <strlen>
 8000578:	4603      	mov	r3, r0
 800057a:	b29a      	uxth	r2, r3
 800057c:	23fa      	movs	r3, #250	; 0xfa
 800057e:	4621      	mov	r1, r4
 8000580:	4808      	ldr	r0, [pc, #32]	; (80005a4 <UART_Report_Status+0x7c>)
 8000582:	f001 ffa9 	bl	80024d8 <HAL_UART_Transmit>
}
 8000586:	bf00      	nop
 8000588:	370c      	adds	r7, #12
 800058a:	46bd      	mov	sp, r7
 800058c:	bd90      	pop	{r4, r7, pc}
 800058e:	bf00      	nop
 8000590:	20000140 	.word	0x20000140
 8000594:	08003a10 	.word	0x08003a10
 8000598:	08003a14 	.word	0x08003a14
 800059c:	08003a2c 	.word	0x08003a2c
 80005a0:	08003a48 	.word	0x08003a48
 80005a4:	200000f4 	.word	0x200000f4

080005a8 <UART_Report_Timestamp>:
void UART_Report_Timestamp(void){
 80005a8:	b580      	push	{r7, lr}
 80005aa:	af00      	add	r7, sp, #0
	if (isTaskJustRun == 0) return;
 80005ac:	4b0d      	ldr	r3, [pc, #52]	; (80005e4 <UART_Report_Timestamp+0x3c>)
 80005ae:	781b      	ldrb	r3, [r3, #0]
 80005b0:	2b00      	cmp	r3, #0
 80005b2:	d015      	beq.n	80005e0 <UART_Report_Timestamp+0x38>
	isTaskJustRun = 0;
 80005b4:	4b0b      	ldr	r3, [pc, #44]	; (80005e4 <UART_Report_Timestamp+0x3c>)
 80005b6:	2200      	movs	r2, #0
 80005b8:	701a      	strb	r2, [r3, #0]
	sprintf(strTimestamp, "%u0ms: ID=%u\r\n", timestamp, TaskIdJustRun);
 80005ba:	4b0b      	ldr	r3, [pc, #44]	; (80005e8 <UART_Report_Timestamp+0x40>)
 80005bc:	681a      	ldr	r2, [r3, #0]
 80005be:	4b0b      	ldr	r3, [pc, #44]	; (80005ec <UART_Report_Timestamp+0x44>)
 80005c0:	881b      	ldrh	r3, [r3, #0]
 80005c2:	490b      	ldr	r1, [pc, #44]	; (80005f0 <UART_Report_Timestamp+0x48>)
 80005c4:	480b      	ldr	r0, [pc, #44]	; (80005f4 <UART_Report_Timestamp+0x4c>)
 80005c6:	f002 fe89 	bl	80032dc <siprintf>
	HAL_UART_Transmit(&huart1, (uint8_t*) strTimestamp, strlen(strTimestamp), 250);
 80005ca:	480a      	ldr	r0, [pc, #40]	; (80005f4 <UART_Report_Timestamp+0x4c>)
 80005cc:	f7ff fdbe 	bl	800014c <strlen>
 80005d0:	4603      	mov	r3, r0
 80005d2:	b29a      	uxth	r2, r3
 80005d4:	23fa      	movs	r3, #250	; 0xfa
 80005d6:	4907      	ldr	r1, [pc, #28]	; (80005f4 <UART_Report_Timestamp+0x4c>)
 80005d8:	4807      	ldr	r0, [pc, #28]	; (80005f8 <UART_Report_Timestamp+0x50>)
 80005da:	f001 ff7d 	bl	80024d8 <HAL_UART_Transmit>
 80005de:	e000      	b.n	80005e2 <UART_Report_Timestamp+0x3a>
	if (isTaskJustRun == 0) return;
 80005e0:	bf00      	nop
}
 80005e2:	bd80      	pop	{r7, pc}
 80005e4:	20000164 	.word	0x20000164
 80005e8:	2000013c 	.word	0x2000013c
 80005ec:	20000176 	.word	0x20000176
 80005f0:	08003a60 	.word	0x08003a60
 80005f4:	20000144 	.word	0x20000144
 80005f8:	200000f4 	.word	0x200000f4

080005fc <Error_Handler>:
/**
  * @brief  This function is executed in case of error occurrence.
  * @retval None
  */
void Error_Handler(void)
{
 80005fc:	b480      	push	{r7}
 80005fe:	af00      	add	r7, sp, #0
  \details Disables IRQ interrupts by setting the I-bit in the CPSR.
           Can only be executed in Privileged modes.
 */
__STATIC_FORCEINLINE void __disable_irq(void)
{
  __ASM volatile ("cpsid i" : : : "memory");
 8000600:	b672      	cpsid	i
}
 8000602:	bf00      	nop
  /* USER CODE BEGIN Error_Handler_Debug */
  /* User can add his own implementation to report the HAL error return state */
  __disable_irq();
  while (1)
 8000604:	e7fe      	b.n	8000604 <Error_Handler+0x8>
	...

08000608 <SCH_Init>:
/*
 * For report error
 */
uint8_t errorCode;

void SCH_Init(void){
 8000608:	b480      	push	{r7}
 800060a:	af00      	add	r7, sp, #0
	head_task 	= NULL;
 800060c:	4b09      	ldr	r3, [pc, #36]	; (8000634 <SCH_Init+0x2c>)
 800060e:	2200      	movs	r2, #0
 8000610:	601a      	str	r2, [r3, #0]
	time_skip 	= 0;
 8000612:	4b09      	ldr	r3, [pc, #36]	; (8000638 <SCH_Init+0x30>)
 8000614:	2200      	movs	r2, #0
 8000616:	801a      	strh	r2, [r3, #0]
	count_task 	= 0;
 8000618:	4b08      	ldr	r3, [pc, #32]	; (800063c <SCH_Init+0x34>)
 800061a:	2200      	movs	r2, #0
 800061c:	801a      	strh	r2, [r3, #0]
	next_id 	= 1;
 800061e:	4b08      	ldr	r3, [pc, #32]	; (8000640 <SCH_Init+0x38>)
 8000620:	2201      	movs	r2, #1
 8000622:	801a      	strh	r2, [r3, #0]
	errorCode	= 0;
 8000624:	4b07      	ldr	r3, [pc, #28]	; (8000644 <SCH_Init+0x3c>)
 8000626:	2200      	movs	r2, #0
 8000628:	701a      	strb	r2, [r3, #0]
}
 800062a:	bf00      	nop
 800062c:	46bd      	mov	sp, r7
 800062e:	bc80      	pop	{r7}
 8000630:	4770      	bx	lr
 8000632:	bf00      	nop
 8000634:	2000016c 	.word	0x2000016c
 8000638:	20000170 	.word	0x20000170
 800063c:	20000172 	.word	0x20000172
 8000640:	20000174 	.word	0x20000174
 8000644:	20000178 	.word	0x20000178

08000648 <SCH_Update>:

void SCH_Update(void){
 8000648:	b480      	push	{r7}
 800064a:	b083      	sub	sp, #12
 800064c:	af00      	add	r7, sp, #0
	if (head_task == NULL) {
 800064e:	4b1e      	ldr	r3, [pc, #120]	; (80006c8 <SCH_Update+0x80>)
 8000650:	681b      	ldr	r3, [r3, #0]
 8000652:	2b00      	cmp	r3, #0
 8000654:	d10c      	bne.n	8000670 <SCH_Update+0x28>
		 * This is for situation, you just have one task run.
		 * When task ran completely, it will dequeue, but at this time
		 * SCH_Update can be run, and if we not add 1 for time_skip
		 * instead of do nothing, your task will run wrong time.
		 */
		time_skip = (count_task > 0) ? time_skip + 1 : 0;
 8000656:	4b1d      	ldr	r3, [pc, #116]	; (80006cc <SCH_Update+0x84>)
 8000658:	881b      	ldrh	r3, [r3, #0]
 800065a:	2b00      	cmp	r3, #0
 800065c:	d004      	beq.n	8000668 <SCH_Update+0x20>
 800065e:	4b1c      	ldr	r3, [pc, #112]	; (80006d0 <SCH_Update+0x88>)
 8000660:	881b      	ldrh	r3, [r3, #0]
 8000662:	3301      	adds	r3, #1
 8000664:	b29b      	uxth	r3, r3
 8000666:	e000      	b.n	800066a <SCH_Update+0x22>
 8000668:	2300      	movs	r3, #0
 800066a:	4a19      	ldr	r2, [pc, #100]	; (80006d0 <SCH_Update+0x88>)
 800066c:	8013      	strh	r3, [r2, #0]
		return;
 800066e:	e026      	b.n	80006be <SCH_Update+0x76>
	}
	time_skip++;
 8000670:	4b17      	ldr	r3, [pc, #92]	; (80006d0 <SCH_Update+0x88>)
 8000672:	881b      	ldrh	r3, [r3, #0]
 8000674:	3301      	adds	r3, #1
 8000676:	b29a      	uxth	r2, r3
 8000678:	4b15      	ldr	r3, [pc, #84]	; (80006d0 <SCH_Update+0x88>)
 800067a:	801a      	strh	r2, [r3, #0]
	if (head_task->Delay > 0){
 800067c:	4b12      	ldr	r3, [pc, #72]	; (80006c8 <SCH_Update+0x80>)
 800067e:	681b      	ldr	r3, [r3, #0]
 8000680:	685b      	ldr	r3, [r3, #4]
 8000682:	2b00      	cmp	r3, #0
 8000684:	d01b      	beq.n	80006be <SCH_Update+0x76>
		int temp = head_task->Delay - time_skip;
 8000686:	4b10      	ldr	r3, [pc, #64]	; (80006c8 <SCH_Update+0x80>)
 8000688:	681b      	ldr	r3, [r3, #0]
 800068a:	685b      	ldr	r3, [r3, #4]
 800068c:	4a10      	ldr	r2, [pc, #64]	; (80006d0 <SCH_Update+0x88>)
 800068e:	8812      	ldrh	r2, [r2, #0]
 8000690:	1a9b      	subs	r3, r3, r2
 8000692:	607b      	str	r3, [r7, #4]
		if (temp >= 0) {
 8000694:	687b      	ldr	r3, [r7, #4]
 8000696:	2b00      	cmp	r3, #0
 8000698:	db07      	blt.n	80006aa <SCH_Update+0x62>
			head_task->Delay = temp;
 800069a:	4b0b      	ldr	r3, [pc, #44]	; (80006c8 <SCH_Update+0x80>)
 800069c:	681b      	ldr	r3, [r3, #0]
 800069e:	687a      	ldr	r2, [r7, #4]
 80006a0:	605a      	str	r2, [r3, #4]
			time_skip = 0;
 80006a2:	4b0b      	ldr	r3, [pc, #44]	; (80006d0 <SCH_Update+0x88>)
 80006a4:	2200      	movs	r2, #0
 80006a6:	801a      	strh	r2, [r3, #0]
 80006a8:	e009      	b.n	80006be <SCH_Update+0x76>
		} else {
			head_task->Delay = 0;
 80006aa:	4b07      	ldr	r3, [pc, #28]	; (80006c8 <SCH_Update+0x80>)
 80006ac:	681b      	ldr	r3, [r3, #0]
 80006ae:	2200      	movs	r2, #0
 80006b0:	605a      	str	r2, [r3, #4]
			time_skip = 0 - temp;
 80006b2:	687b      	ldr	r3, [r7, #4]
 80006b4:	b29b      	uxth	r3, r3
 80006b6:	425b      	negs	r3, r3
 80006b8:	b29a      	uxth	r2, r3
 80006ba:	4b05      	ldr	r3, [pc, #20]	; (80006d0 <SCH_Update+0x88>)
 80006bc:	801a      	strh	r2, [r3, #0]
		}
	}
}
 80006be:	370c      	adds	r7, #12
 80006c0:	46bd      	mov	sp, r7
 80006c2:	bc80      	pop	{r7}
 80006c4:	4770      	bx	lr
 80006c6:	bf00      	nop
 80006c8:	2000016c 	.word	0x2000016c
 80006cc:	20000172 	.word	0x20000172
 80006d0:	20000170 	.word	0x20000170

080006d4 <Create_Task>:

sTask* Create_Task(void (*pFunc)(void), uint32_t Delay, uint32_t Period){
 80006d4:	b580      	push	{r7, lr}
 80006d6:	b086      	sub	sp, #24
 80006d8:	af00      	add	r7, sp, #0
 80006da:	60f8      	str	r0, [r7, #12]
 80006dc:	60b9      	str	r1, [r7, #8]
 80006de:	607a      	str	r2, [r7, #4]
	if (count_task > SCH_MAX_TASKS){
 80006e0:	4b1c      	ldr	r3, [pc, #112]	; (8000754 <Create_Task+0x80>)
 80006e2:	881b      	ldrh	r3, [r3, #0]
 80006e4:	2b0a      	cmp	r3, #10
 80006e6:	d904      	bls.n	80006f2 <Create_Task+0x1e>
		errorCode = ERROR_SCH_TOO_MANY_TASKS;
 80006e8:	4b1b      	ldr	r3, [pc, #108]	; (8000758 <Create_Task+0x84>)
 80006ea:	2201      	movs	r2, #1
 80006ec:	701a      	strb	r2, [r3, #0]
		return NULL;
 80006ee:	2300      	movs	r3, #0
 80006f0:	e02b      	b.n	800074a <Create_Task+0x76>
	}
	uint16_t newId = next_id++;
 80006f2:	4b1a      	ldr	r3, [pc, #104]	; (800075c <Create_Task+0x88>)
 80006f4:	881b      	ldrh	r3, [r3, #0]
 80006f6:	1c5a      	adds	r2, r3, #1
 80006f8:	b291      	uxth	r1, r2
 80006fa:	4a18      	ldr	r2, [pc, #96]	; (800075c <Create_Task+0x88>)
 80006fc:	8011      	strh	r1, [r2, #0]
 80006fe:	82fb      	strh	r3, [r7, #22]

	Delay  /= TIMER_CYCLE;
 8000700:	68bb      	ldr	r3, [r7, #8]
 8000702:	4a17      	ldr	r2, [pc, #92]	; (8000760 <Create_Task+0x8c>)
 8000704:	fba2 2303 	umull	r2, r3, r2, r3
 8000708:	08db      	lsrs	r3, r3, #3
 800070a:	60bb      	str	r3, [r7, #8]
	Period /= TIMER_CYCLE;
 800070c:	687b      	ldr	r3, [r7, #4]
 800070e:	4a14      	ldr	r2, [pc, #80]	; (8000760 <Create_Task+0x8c>)
 8000710:	fba2 2303 	umull	r2, r3, r2, r3
 8000714:	08db      	lsrs	r3, r3, #3
 8000716:	607b      	str	r3, [r7, #4]

	sTask* newTask = malloc(sizeof(sTask));
 8000718:	2014      	movs	r0, #20
 800071a:	f002 fcdb 	bl	80030d4 <malloc>
 800071e:	4603      	mov	r3, r0
 8000720:	613b      	str	r3, [r7, #16]

	newTask->pFunc 		= pFunc;
 8000722:	693b      	ldr	r3, [r7, #16]
 8000724:	68fa      	ldr	r2, [r7, #12]
 8000726:	601a      	str	r2, [r3, #0]
	newTask->Delay 		= Delay + time_skip;
 8000728:	4b0e      	ldr	r3, [pc, #56]	; (8000764 <Create_Task+0x90>)
 800072a:	881b      	ldrh	r3, [r3, #0]
 800072c:	461a      	mov	r2, r3
 800072e:	68bb      	ldr	r3, [r7, #8]
 8000730:	441a      	add	r2, r3
 8000732:	693b      	ldr	r3, [r7, #16]
 8000734:	605a      	str	r2, [r3, #4]
	newTask->Period	    = Period;
 8000736:	693b      	ldr	r3, [r7, #16]
 8000738:	687a      	ldr	r2, [r7, #4]
 800073a:	609a      	str	r2, [r3, #8]
	newTask->TaskID		= newId;
 800073c:	693b      	ldr	r3, [r7, #16]
 800073e:	8afa      	ldrh	r2, [r7, #22]
 8000740:	819a      	strh	r2, [r3, #12]
	newTask->Next 		= NULL;
 8000742:	693b      	ldr	r3, [r7, #16]
 8000744:	2200      	movs	r2, #0
 8000746:	611a      	str	r2, [r3, #16]

	return newTask;
 8000748:	693b      	ldr	r3, [r7, #16]
}
 800074a:	4618      	mov	r0, r3
 800074c:	3718      	adds	r7, #24
 800074e:	46bd      	mov	sp, r7
 8000750:	bd80      	pop	{r7, pc}
 8000752:	bf00      	nop
 8000754:	20000172 	.word	0x20000172
 8000758:	20000178 	.word	0x20000178
 800075c:	20000174 	.word	0x20000174
 8000760:	cccccccd 	.word	0xcccccccd
 8000764:	20000170 	.word	0x20000170

08000768 <Enqueue_Task>:
 * Enqueue and modify Delay
 * Example: A->Delay = 1000, B->Delay = 2000, C->Delay = 3000
 * When we completely add all of them in queue, the queue will be
 * Element 1: A->Delay = 1000, Element 2: B->Delay = 1000, C->Delay = 1000
 */
sTask* Enqueue_Task(sTask* newTask){
 8000768:	b480      	push	{r7}
 800076a:	b087      	sub	sp, #28
 800076c:	af00      	add	r7, sp, #0
 800076e:	6078      	str	r0, [r7, #4]
	//First task in queue.
	if (head_task == NULL){
 8000770:	4b30      	ldr	r3, [pc, #192]	; (8000834 <Enqueue_Task+0xcc>)
 8000772:	681b      	ldr	r3, [r3, #0]
 8000774:	2b00      	cmp	r3, #0
 8000776:	d104      	bne.n	8000782 <Enqueue_Task+0x1a>
		head_task = newTask;
 8000778:	4a2e      	ldr	r2, [pc, #184]	; (8000834 <Enqueue_Task+0xcc>)
 800077a:	687b      	ldr	r3, [r7, #4]
 800077c:	6013      	str	r3, [r2, #0]
		return newTask;
 800077e:	687b      	ldr	r3, [r7, #4]
 8000780:	e052      	b.n	8000828 <Enqueue_Task+0xc0>
	}

	//Task will add at middle of queue.
	sTask *ini = head_task;
 8000782:	4b2c      	ldr	r3, [pc, #176]	; (8000834 <Enqueue_Task+0xcc>)
 8000784:	681b      	ldr	r3, [r3, #0]
 8000786:	617b      	str	r3, [r7, #20]
	sTask *pre = NULL;
 8000788:	2300      	movs	r3, #0
 800078a:	613b      	str	r3, [r7, #16]
	uint32_t sum = 0;
 800078c:	2300      	movs	r3, #0
 800078e:	60fb      	str	r3, [r7, #12]
	while (ini != NULL){
 8000790:	e03a      	b.n	8000808 <Enqueue_Task+0xa0>
		if (sum + ini->Delay > newTask->Delay){
 8000792:	697b      	ldr	r3, [r7, #20]
 8000794:	685a      	ldr	r2, [r3, #4]
 8000796:	68fb      	ldr	r3, [r7, #12]
 8000798:	441a      	add	r2, r3
 800079a:	687b      	ldr	r3, [r7, #4]
 800079c:	685b      	ldr	r3, [r3, #4]
 800079e:	429a      	cmp	r2, r3
 80007a0:	d928      	bls.n	80007f4 <Enqueue_Task+0x8c>
			if (ini == head_task){
 80007a2:	4b24      	ldr	r3, [pc, #144]	; (8000834 <Enqueue_Task+0xcc>)
 80007a4:	681b      	ldr	r3, [r3, #0]
 80007a6:	697a      	ldr	r2, [r7, #20]
 80007a8:	429a      	cmp	r2, r3
 80007aa:	d10e      	bne.n	80007ca <Enqueue_Task+0x62>
				newTask->Next = head_task;
 80007ac:	4b21      	ldr	r3, [pc, #132]	; (8000834 <Enqueue_Task+0xcc>)
 80007ae:	681a      	ldr	r2, [r3, #0]
 80007b0:	687b      	ldr	r3, [r7, #4]
 80007b2:	611a      	str	r2, [r3, #16]
				head_task 	= newTask;
 80007b4:	4a1f      	ldr	r2, [pc, #124]	; (8000834 <Enqueue_Task+0xcc>)
 80007b6:	687b      	ldr	r3, [r7, #4]
 80007b8:	6013      	str	r3, [r2, #0]
				ini->Delay -= newTask->Delay;
 80007ba:	697b      	ldr	r3, [r7, #20]
 80007bc:	685a      	ldr	r2, [r3, #4]
 80007be:	687b      	ldr	r3, [r7, #4]
 80007c0:	685b      	ldr	r3, [r3, #4]
 80007c2:	1ad2      	subs	r2, r2, r3
 80007c4:	697b      	ldr	r3, [r7, #20]
 80007c6:	605a      	str	r2, [r3, #4]
 80007c8:	e012      	b.n	80007f0 <Enqueue_Task+0x88>
			} else {
				newTask->Next 	= ini;
 80007ca:	687b      	ldr	r3, [r7, #4]
 80007cc:	697a      	ldr	r2, [r7, #20]
 80007ce:	611a      	str	r2, [r3, #16]
				pre->Next 		= newTask;
 80007d0:	693b      	ldr	r3, [r7, #16]
 80007d2:	687a      	ldr	r2, [r7, #4]
 80007d4:	611a      	str	r2, [r3, #16]
				newTask->Delay -= sum;
 80007d6:	687b      	ldr	r3, [r7, #4]
 80007d8:	685a      	ldr	r2, [r3, #4]
 80007da:	68fb      	ldr	r3, [r7, #12]
 80007dc:	1ad2      	subs	r2, r2, r3
 80007de:	687b      	ldr	r3, [r7, #4]
 80007e0:	605a      	str	r2, [r3, #4]
				ini->Delay     -= newTask->Delay;
 80007e2:	697b      	ldr	r3, [r7, #20]
 80007e4:	685a      	ldr	r2, [r3, #4]
 80007e6:	687b      	ldr	r3, [r7, #4]
 80007e8:	685b      	ldr	r3, [r3, #4]
 80007ea:	1ad2      	subs	r2, r2, r3
 80007ec:	697b      	ldr	r3, [r7, #20]
 80007ee:	605a      	str	r2, [r3, #4]
			}
			return newTask;
 80007f0:	687b      	ldr	r3, [r7, #4]
 80007f2:	e019      	b.n	8000828 <Enqueue_Task+0xc0>
		}
		sum 	+= ini->Delay;
 80007f4:	697b      	ldr	r3, [r7, #20]
 80007f6:	685b      	ldr	r3, [r3, #4]
 80007f8:	68fa      	ldr	r2, [r7, #12]
 80007fa:	4413      	add	r3, r2
 80007fc:	60fb      	str	r3, [r7, #12]
		pre		 = ini;
 80007fe:	697b      	ldr	r3, [r7, #20]
 8000800:	613b      	str	r3, [r7, #16]
		ini		 = ini->Next;
 8000802:	697b      	ldr	r3, [r7, #20]
 8000804:	691b      	ldr	r3, [r3, #16]
 8000806:	617b      	str	r3, [r7, #20]
	while (ini != NULL){
 8000808:	697b      	ldr	r3, [r7, #20]
 800080a:	2b00      	cmp	r3, #0
 800080c:	d1c1      	bne.n	8000792 <Enqueue_Task+0x2a>
	}

	//Task will add of tail
	if (ini == NULL){
 800080e:	697b      	ldr	r3, [r7, #20]
 8000810:	2b00      	cmp	r3, #0
 8000812:	d108      	bne.n	8000826 <Enqueue_Task+0xbe>
		pre->Next 		= newTask;
 8000814:	693b      	ldr	r3, [r7, #16]
 8000816:	687a      	ldr	r2, [r7, #4]
 8000818:	611a      	str	r2, [r3, #16]
		newTask->Delay -= sum;
 800081a:	687b      	ldr	r3, [r7, #4]
 800081c:	685a      	ldr	r2, [r3, #4]
 800081e:	68fb      	ldr	r3, [r7, #12]
 8000820:	1ad2      	subs	r2, r2, r3
 8000822:	687b      	ldr	r3, [r7, #4]
 8000824:	605a      	str	r2, [r3, #4]
	}

	return newTask;
 8000826:	687b      	ldr	r3, [r7, #4]
}
 8000828:	4618      	mov	r0, r3
 800082a:	371c      	adds	r7, #28
 800082c:	46bd      	mov	sp, r7
 800082e:	bc80      	pop	{r7}
 8000830:	4770      	bx	lr
 8000832:	bf00      	nop
 8000834:	2000016c 	.word	0x2000016c

08000838 <SCH_Add_Task>:

sTask* SCH_Add_Task(void (*pFunc)(void), uint32_t Delay, uint32_t Period){
 8000838:	b580      	push	{r7, lr}
 800083a:	b086      	sub	sp, #24
 800083c:	af00      	add	r7, sp, #0
 800083e:	60f8      	str	r0, [r7, #12]
 8000840:	60b9      	str	r1, [r7, #8]
 8000842:	607a      	str	r2, [r7, #4]
	sTask* newTask = Create_Task(pFunc, Delay, Period);
 8000844:	687a      	ldr	r2, [r7, #4]
 8000846:	68b9      	ldr	r1, [r7, #8]
 8000848:	68f8      	ldr	r0, [r7, #12]
 800084a:	f7ff ff43 	bl	80006d4 <Create_Task>
 800084e:	6178      	str	r0, [r7, #20]
	if (newTask == NULL){
 8000850:	697b      	ldr	r3, [r7, #20]
 8000852:	2b00      	cmp	r3, #0
 8000854:	d101      	bne.n	800085a <SCH_Add_Task+0x22>
		return NULL;
 8000856:	2300      	movs	r3, #0
 8000858:	e003      	b.n	8000862 <SCH_Add_Task+0x2a>
	}
	return Enqueue_Task(newTask);
 800085a:	6978      	ldr	r0, [r7, #20]
 800085c:	f7ff ff84 	bl	8000768 <Enqueue_Task>
 8000860:	4603      	mov	r3, r0
}
 8000862:	4618      	mov	r0, r3
 8000864:	3718      	adds	r7, #24
 8000866:	46bd      	mov	sp, r7
 8000868:	bd80      	pop	{r7, pc}
	...

0800086c <SCH_Dispatch_Tasks>:

/*
 * If no task run => return 0
 * task run => return 1
 */
uint8_t SCH_Dispatch_Tasks(void){
 800086c:	b580      	push	{r7, lr}
 800086e:	b082      	sub	sp, #8
 8000870:	af00      	add	r7, sp, #0
	if (head_task == NULL || head_task->Delay > 0) return 0;
 8000872:	4b18      	ldr	r3, [pc, #96]	; (80008d4 <SCH_Dispatch_Tasks+0x68>)
 8000874:	681b      	ldr	r3, [r3, #0]
 8000876:	2b00      	cmp	r3, #0
 8000878:	d004      	beq.n	8000884 <SCH_Dispatch_Tasks+0x18>
 800087a:	4b16      	ldr	r3, [pc, #88]	; (80008d4 <SCH_Dispatch_Tasks+0x68>)
 800087c:	681b      	ldr	r3, [r3, #0]
 800087e:	685b      	ldr	r3, [r3, #4]
 8000880:	2b00      	cmp	r3, #0
 8000882:	d001      	beq.n	8000888 <SCH_Dispatch_Tasks+0x1c>
 8000884:	2300      	movs	r3, #0
 8000886:	e021      	b.n	80008cc <SCH_Dispatch_Tasks+0x60>

	// Remove head task out of queue (dequeue, not delete)
	// and config delay then enqueue it again.
	sTask* runningTask = head_task;
 8000888:	4b12      	ldr	r3, [pc, #72]	; (80008d4 <SCH_Dispatch_Tasks+0x68>)
 800088a:	681b      	ldr	r3, [r3, #0]
 800088c:	607b      	str	r3, [r7, #4]
	head_task = head_task->Next;
 800088e:	4b11      	ldr	r3, [pc, #68]	; (80008d4 <SCH_Dispatch_Tasks+0x68>)
 8000890:	681b      	ldr	r3, [r3, #0]
 8000892:	691b      	ldr	r3, [r3, #16]
 8000894:	4a0f      	ldr	r2, [pc, #60]	; (80008d4 <SCH_Dispatch_Tasks+0x68>)
 8000896:	6013      	str	r3, [r2, #0]

	runningTask->Next 	= NULL;
 8000898:	687b      	ldr	r3, [r7, #4]
 800089a:	2200      	movs	r2, #0
 800089c:	611a      	str	r2, [r3, #16]
	runningTask->Delay 	= runningTask->Period;
 800089e:	687b      	ldr	r3, [r7, #4]
 80008a0:	689a      	ldr	r2, [r3, #8]
 80008a2:	687b      	ldr	r3, [r7, #4]
 80008a4:	605a      	str	r2, [r3, #4]

	// Run task
	runningTask->pFunc();
 80008a6:	687b      	ldr	r3, [r7, #4]
 80008a8:	681b      	ldr	r3, [r3, #0]
 80008aa:	4798      	blx	r3
	// Save the task just ran
	TaskIdJustRun = runningTask->TaskID;
 80008ac:	687b      	ldr	r3, [r7, #4]
 80008ae:	899a      	ldrh	r2, [r3, #12]
 80008b0:	4b09      	ldr	r3, [pc, #36]	; (80008d8 <SCH_Dispatch_Tasks+0x6c>)
 80008b2:	801a      	strh	r2, [r3, #0]

	// Add again if a task has period value isn't equal to 0.
	if (runningTask->Period != 0) Enqueue_Task(runningTask);
 80008b4:	687b      	ldr	r3, [r7, #4]
 80008b6:	689b      	ldr	r3, [r3, #8]
 80008b8:	2b00      	cmp	r3, #0
 80008ba:	d003      	beq.n	80008c4 <SCH_Dispatch_Tasks+0x58>
 80008bc:	6878      	ldr	r0, [r7, #4]
 80008be:	f7ff ff53 	bl	8000768 <Enqueue_Task>
 80008c2:	e002      	b.n	80008ca <SCH_Dispatch_Tasks+0x5e>
	else free(runningTask);
 80008c4:	6878      	ldr	r0, [r7, #4]
 80008c6:	f002 fc0d 	bl	80030e4 <free>

	return 1;
 80008ca:	2301      	movs	r3, #1
}
 80008cc:	4618      	mov	r0, r3
 80008ce:	3708      	adds	r7, #8
 80008d0:	46bd      	mov	sp, r7
 80008d2:	bd80      	pop	{r7, pc}
 80008d4:	2000016c 	.word	0x2000016c
 80008d8:	20000176 	.word	0x20000176

080008dc <SCH_Sleep>:
	}
	free(deleted_task);
	return 1;
}

void SCH_Sleep(void){
 80008dc:	b580      	push	{r7, lr}
 80008de:	af00      	add	r7, sp, #0
	//Still task need to run
	if (head_task->Delay == 0) return;
 80008e0:	4b07      	ldr	r3, [pc, #28]	; (8000900 <SCH_Sleep+0x24>)
 80008e2:	681b      	ldr	r3, [r3, #0]
 80008e4:	685b      	ldr	r3, [r3, #4]
 80008e6:	2b00      	cmp	r3, #0
 80008e8:	d008      	beq.n	80008fc <SCH_Sleep+0x20>
	//No task to run at this time, then go sleep
	HAL_SuspendTick();
 80008ea:	f000 f9b7 	bl	8000c5c <HAL_SuspendTick>
	HAL_PWR_EnterSLEEPMode(PWR_MAINREGULATOR_ON, PWR_SLEEPENTRY_WFI);
 80008ee:	2101      	movs	r1, #1
 80008f0:	2000      	movs	r0, #0
 80008f2:	f000 fd8d 	bl	8001410 <HAL_PWR_EnterSLEEPMode>
	HAL_ResumeTick();
 80008f6:	f000 f9bf 	bl	8000c78 <HAL_ResumeTick>
 80008fa:	e000      	b.n	80008fe <SCH_Sleep+0x22>
	if (head_task->Delay == 0) return;
 80008fc:	bf00      	nop
}
 80008fe:	bd80      	pop	{r7, pc}
 8000900:	2000016c 	.word	0x2000016c

08000904 <SCH_Report_Status>:

uint8_t SCH_Report_Status(void){
 8000904:	b480      	push	{r7}
 8000906:	b083      	sub	sp, #12
 8000908:	af00      	add	r7, sp, #0
#ifdef SCH_REPORT_ERRORS
	uint8_t tempErrorCode = errorCode;
 800090a:	4b06      	ldr	r3, [pc, #24]	; (8000924 <SCH_Report_Status+0x20>)
 800090c:	781b      	ldrb	r3, [r3, #0]
 800090e:	71fb      	strb	r3, [r7, #7]
	errorCode = 0;
 8000910:	4b04      	ldr	r3, [pc, #16]	; (8000924 <SCH_Report_Status+0x20>)
 8000912:	2200      	movs	r2, #0
 8000914:	701a      	strb	r2, [r3, #0]
	return tempErrorCode;
 8000916:	79fb      	ldrb	r3, [r7, #7]
#endif
}
 8000918:	4618      	mov	r0, r3
 800091a:	370c      	adds	r7, #12
 800091c:	46bd      	mov	sp, r7
 800091e:	bc80      	pop	{r7}
 8000920:	4770      	bx	lr
 8000922:	bf00      	nop
 8000924:	20000178 	.word	0x20000178

08000928 <HAL_MspInit>:
/* USER CODE END 0 */
/**
  * Initializes the Global MSP.
  */
void HAL_MspInit(void)
{
 8000928:	b480      	push	{r7}
 800092a:	b083      	sub	sp, #12
 800092c:	af00      	add	r7, sp, #0
  /* USER CODE BEGIN MspInit 0 */

  /* USER CODE END MspInit 0 */

  __HAL_RCC_AFIO_CLK_ENABLE();
 800092e:	4b0e      	ldr	r3, [pc, #56]	; (8000968 <HAL_MspInit+0x40>)
 8000930:	699b      	ldr	r3, [r3, #24]
 8000932:	4a0d      	ldr	r2, [pc, #52]	; (8000968 <HAL_MspInit+0x40>)
 8000934:	f043 0301 	orr.w	r3, r3, #1
 8000938:	6193      	str	r3, [r2, #24]
 800093a:	4b0b      	ldr	r3, [pc, #44]	; (8000968 <HAL_MspInit+0x40>)
 800093c:	699b      	ldr	r3, [r3, #24]
 800093e:	f003 0301 	and.w	r3, r3, #1
 8000942:	607b      	str	r3, [r7, #4]
 8000944:	687b      	ldr	r3, [r7, #4]
  __HAL_RCC_PWR_CLK_ENABLE();
 8000946:	4b08      	ldr	r3, [pc, #32]	; (8000968 <HAL_MspInit+0x40>)
 8000948:	69db      	ldr	r3, [r3, #28]
 800094a:	4a07      	ldr	r2, [pc, #28]	; (8000968 <HAL_MspInit+0x40>)
 800094c:	f043 5380 	orr.w	r3, r3, #268435456	; 0x10000000
 8000950:	61d3      	str	r3, [r2, #28]
 8000952:	4b05      	ldr	r3, [pc, #20]	; (8000968 <HAL_MspInit+0x40>)
 8000954:	69db      	ldr	r3, [r3, #28]
 8000956:	f003 5380 	and.w	r3, r3, #268435456	; 0x10000000
 800095a:	603b      	str	r3, [r7, #0]
 800095c:	683b      	ldr	r3, [r7, #0]
  /* System interrupt init*/

  /* USER CODE BEGIN MspInit 1 */

  /* USER CODE END MspInit 1 */
}
 800095e:	bf00      	nop
 8000960:	370c      	adds	r7, #12
 8000962:	46bd      	mov	sp, r7
 8000964:	bc80      	pop	{r7}
 8000966:	4770      	bx	lr
 8000968:	40021000 	.word	0x40021000

0800096c <HAL_TIM_Base_MspInit>:
* This function configures the hardware resources used in this example
* @param htim_base: TIM_Base handle pointer
* @retval None
*/
void HAL_TIM_Base_MspInit(TIM_HandleTypeDef* htim_base)
{
 800096c:	b580      	push	{r7, lr}
 800096e:	b084      	sub	sp, #16
 8000970:	af00      	add	r7, sp, #0
 8000972:	6078      	str	r0, [r7, #4]
  if(htim_base->Instance==TIM2)
 8000974:	687b      	ldr	r3, [r7, #4]
 8000976:	681b      	ldr	r3, [r3, #0]
 8000978:	f1b3 4f80 	cmp.w	r3, #1073741824	; 0x40000000
 800097c:	d113      	bne.n	80009a6 <HAL_TIM_Base_MspInit+0x3a>
  {
  /* USER CODE BEGIN TIM2_MspInit 0 */

  /* USER CODE END TIM2_MspInit 0 */
    /* Peripheral clock enable */
    __HAL_RCC_TIM2_CLK_ENABLE();
 800097e:	4b0c      	ldr	r3, [pc, #48]	; (80009b0 <HAL_TIM_Base_MspInit+0x44>)
 8000980:	69db      	ldr	r3, [r3, #28]
 8000982:	4a0b      	ldr	r2, [pc, #44]	; (80009b0 <HAL_TIM_Base_MspInit+0x44>)
 8000984:	f043 0301 	orr.w	r3, r3, #1
 8000988:	61d3      	str	r3, [r2, #28]
 800098a:	4b09      	ldr	r3, [pc, #36]	; (80009b0 <HAL_TIM_Base_MspInit+0x44>)
 800098c:	69db      	ldr	r3, [r3, #28]
 800098e:	f003 0301 	and.w	r3, r3, #1
 8000992:	60fb      	str	r3, [r7, #12]
 8000994:	68fb      	ldr	r3, [r7, #12]
    /* TIM2 interrupt Init */
    HAL_NVIC_SetPriority(TIM2_IRQn, 0, 0);
 8000996:	2200      	movs	r2, #0
 8000998:	2100      	movs	r1, #0
 800099a:	201c      	movs	r0, #28
 800099c:	f000 fa51 	bl	8000e42 <HAL_NVIC_SetPriority>
    HAL_NVIC_EnableIRQ(TIM2_IRQn);
 80009a0:	201c      	movs	r0, #28
 80009a2:	f000 fa6a 	bl	8000e7a <HAL_NVIC_EnableIRQ>
  /* USER CODE BEGIN TIM2_MspInit 1 */

  /* USER CODE END TIM2_MspInit 1 */
  }

}
 80009a6:	bf00      	nop
 80009a8:	3710      	adds	r7, #16
 80009aa:	46bd      	mov	sp, r7
 80009ac:	bd80      	pop	{r7, pc}
 80009ae:	bf00      	nop
 80009b0:	40021000 	.word	0x40021000

080009b4 <HAL_UART_MspInit>:
* This function configures the hardware resources used in this example
* @param huart: UART handle pointer
* @retval None
*/
void HAL_UART_MspInit(UART_HandleTypeDef* huart)
{
 80009b4:	b580      	push	{r7, lr}
 80009b6:	b088      	sub	sp, #32
 80009b8:	af00      	add	r7, sp, #0
 80009ba:	6078      	str	r0, [r7, #4]
  GPIO_InitTypeDef GPIO_InitStruct = {0};
 80009bc:	f107 0310 	add.w	r3, r7, #16
 80009c0:	2200      	movs	r2, #0
 80009c2:	601a      	str	r2, [r3, #0]
 80009c4:	605a      	str	r2, [r3, #4]
 80009c6:	609a      	str	r2, [r3, #8]
 80009c8:	60da      	str	r2, [r3, #12]
  if(huart->Instance==USART1)
 80009ca:	687b      	ldr	r3, [r7, #4]
 80009cc:	681b      	ldr	r3, [r3, #0]
 80009ce:	4a20      	ldr	r2, [pc, #128]	; (8000a50 <HAL_UART_MspInit+0x9c>)
 80009d0:	4293      	cmp	r3, r2
 80009d2:	d139      	bne.n	8000a48 <HAL_UART_MspInit+0x94>
  {
  /* USER CODE BEGIN USART1_MspInit 0 */

  /* USER CODE END USART1_MspInit 0 */
    /* Peripheral clock enable */
    __HAL_RCC_USART1_CLK_ENABLE();
 80009d4:	4b1f      	ldr	r3, [pc, #124]	; (8000a54 <HAL_UART_MspInit+0xa0>)
 80009d6:	699b      	ldr	r3, [r3, #24]
 80009d8:	4a1e      	ldr	r2, [pc, #120]	; (8000a54 <HAL_UART_MspInit+0xa0>)
 80009da:	f443 4380 	orr.w	r3, r3, #16384	; 0x4000
 80009de:	6193      	str	r3, [r2, #24]
 80009e0:	4b1c      	ldr	r3, [pc, #112]	; (8000a54 <HAL_UART_MspInit+0xa0>)
 80009e2:	699b      	ldr	r3, [r3, #24]
 80009e4:	f403 4380 	and.w	r3, r3, #16384	; 0x4000
 80009e8:	60fb      	str	r3, [r7, #12]
 80009ea:	68fb      	ldr	r3, [r7, #12]

    __HAL_RCC_GPIOA_CLK_ENABLE();
 80009ec:	4b19      	ldr	r3, [pc, #100]	; (8000a54 <HAL_UART_MspInit+0xa0>)
 80009ee:	699b      	ldr	r3, [r3, #24]
 80009f0:	4a18      	ldr	r2, [pc, #96]	; (8000a54 <HAL_UART_MspInit+0xa0>)
 80009f2:	f043 0304 	orr.w	r3, r3, #4
 80009f6:	6193      	str	r3, [r2, #24]
 80009f8:	4b16      	ldr	r3, [pc, #88]	; (8000a54 <HAL_UART_MspInit+0xa0>)
 80009fa:	699b      	ldr	r3, [r3, #24]
 80009fc:	f003 0304 	and.w	r3, r3, #4
 8000a00:	60bb      	str	r3, [r7, #8]
 8000a02:	68bb      	ldr	r3, [r7, #8]
    /**USART1 GPIO Configuration
    PA9     ------> USART1_TX
    PA10     ------> USART1_RX
    */
    GPIO_InitStruct.Pin = GPIO_PIN_9;
 8000a04:	f44f 7300 	mov.w	r3, #512	; 0x200
 8000a08:	613b      	str	r3, [r7, #16]
    GPIO_InitStruct.Mode = GPIO_MODE_AF_PP;
 8000a0a:	2302      	movs	r3, #2
 8000a0c:	617b      	str	r3, [r7, #20]
    GPIO_InitStruct.Speed = GPIO_SPEED_FREQ_HIGH;
 8000a0e:	2303      	movs	r3, #3
 8000a10:	61fb      	str	r3, [r7, #28]
    HAL_GPIO_Init(GPIOA, &GPIO_InitStruct);
 8000a12:	f107 0310 	add.w	r3, r7, #16
 8000a16:	4619      	mov	r1, r3
 8000a18:	480f      	ldr	r0, [pc, #60]	; (8000a58 <HAL_UART_MspInit+0xa4>)
 8000a1a:	f000 fafb 	bl	8001014 <HAL_GPIO_Init>

    GPIO_InitStruct.Pin = GPIO_PIN_10;
 8000a1e:	f44f 6380 	mov.w	r3, #1024	; 0x400
 8000a22:	613b      	str	r3, [r7, #16]
    GPIO_InitStruct.Mode = GPIO_MODE_INPUT;
 8000a24:	2300      	movs	r3, #0
 8000a26:	617b      	str	r3, [r7, #20]
    GPIO_InitStruct.Pull = GPIO_NOPULL;
 8000a28:	2300      	movs	r3, #0
 8000a2a:	61bb      	str	r3, [r7, #24]
    HAL_GPIO_Init(GPIOA, &GPIO_InitStruct);
 8000a2c:	f107 0310 	add.w	r3, r7, #16
 8000a30:	4619      	mov	r1, r3
 8000a32:	4809      	ldr	r0, [pc, #36]	; (8000a58 <HAL_UART_MspInit+0xa4>)
 8000a34:	f000 faee 	bl	8001014 <HAL_GPIO_Init>

    /* USART1 interrupt Init */
    HAL_NVIC_SetPriority(USART1_IRQn, 0, 0);
 8000a38:	2200      	movs	r2, #0
 8000a3a:	2100      	movs	r1, #0
 8000a3c:	2025      	movs	r0, #37	; 0x25
 8000a3e:	f000 fa00 	bl	8000e42 <HAL_NVIC_SetPriority>
    HAL_NVIC_EnableIRQ(USART1_IRQn);
 8000a42:	2025      	movs	r0, #37	; 0x25
 8000a44:	f000 fa19 	bl	8000e7a <HAL_NVIC_EnableIRQ>
  /* USER CODE BEGIN USART1_MspInit 1 */

  /* USER CODE END USART1_MspInit 1 */
  }

}
 8000a48:	bf00      	nop
 8000a4a:	3720      	adds	r7, #32
 8000a4c:	46bd      	mov	sp, r7
 8000a4e:	bd80      	pop	{r7, pc}
 8000a50:	40013800 	.word	0x40013800
 8000a54:	40021000 	.word	0x40021000
 8000a58:	40010800 	.word	0x40010800

08000a5c <NMI_Handler>:
/******************************************************************************/
/**
  * @brief This function handles Non maskable interrupt.
  */
void NMI_Handler(void)
{
 8000a5c:	b480      	push	{r7}
 8000a5e:	af00      	add	r7, sp, #0
  /* USER CODE BEGIN NonMaskableInt_IRQn 0 */

  /* USER CODE END NonMaskableInt_IRQn 0 */
  /* USER CODE BEGIN NonMaskableInt_IRQn 1 */
  while (1)
 8000a60:	e7fe      	b.n	8000a60 <NMI_Handler+0x4>

08000a62 <HardFault_Handler>:

/**
  * @brief This function handles Hard fault interrupt.
  */
void HardFault_Handler(void)
{
 8000a62:	b480      	push	{r7}
 8000a64:	af00      	add	r7, sp, #0
  /* USER CODE BEGIN HardFault_IRQn 0 */

  /* USER CODE END HardFault_IRQn 0 */
  while (1)
 8000a66:	e7fe      	b.n	8000a66 <HardFault_Handler+0x4>

08000a68 <MemManage_Handler>:

/**
  * @brief This function handles Memory management fault.
  */
void MemManage_Handler(void)
{
 8000a68:	b480      	push	{r7}
 8000a6a:	af00      	add	r7, sp, #0
  /* USER CODE BEGIN MemoryManagement_IRQn 0 */

  /* USER CODE END MemoryManagement_IRQn 0 */
  while (1)
 8000a6c:	e7fe      	b.n	8000a6c <MemManage_Handler+0x4>

08000a6e <BusFault_Handler>:

/**
  * @brief This function handles Prefetch fault, memory access fault.
  */
void BusFault_Handler(void)
{
 8000a6e:	b480      	push	{r7}
 8000a70:	af00      	add	r7, sp, #0
  /* USER CODE BEGIN BusFault_IRQn 0 */

  /* USER CODE END BusFault_IRQn 0 */
  while (1)
 8000a72:	e7fe      	b.n	8000a72 <BusFault_Handler+0x4>

08000a74 <UsageFault_Handler>:

/**
  * @brief This function handles Undefined instruction or illegal state.
  */
void UsageFault_Handler(void)
{
 8000a74:	b480      	push	{r7}
 8000a76:	af00      	add	r7, sp, #0
  /* USER CODE BEGIN UsageFault_IRQn 0 */

  /* USER CODE END UsageFault_IRQn 0 */
  while (1)
 8000a78:	e7fe      	b.n	8000a78 <UsageFault_Handler+0x4>

08000a7a <SVC_Handler>:

/**
  * @brief This function handles System service call via SWI instruction.
  */
void SVC_Handler(void)
{
 8000a7a:	b480      	push	{r7}
 8000a7c:	af00      	add	r7, sp, #0

  /* USER CODE END SVCall_IRQn 0 */
  /* USER CODE BEGIN SVCall_IRQn 1 */

  /* USER CODE END SVCall_IRQn 1 */
}
 8000a7e:	bf00      	nop
 8000a80:	46bd      	mov	sp, r7
 8000a82:	bc80      	pop	{r7}
 8000a84:	4770      	bx	lr

08000a86 <DebugMon_Handler>:

/**
  * @brief This function handles Debug monitor.
  */
void DebugMon_Handler(void)
{
 8000a86:	b480      	push	{r7}
 8000a88:	af00      	add	r7, sp, #0

  /* USER CODE END DebugMonitor_IRQn 0 */
  /* USER CODE BEGIN DebugMonitor_IRQn 1 */

  /* USER CODE END DebugMonitor_IRQn 1 */
}
 8000a8a:	bf00      	nop
 8000a8c:	46bd      	mov	sp, r7
 8000a8e:	bc80      	pop	{r7}
 8000a90:	4770      	bx	lr

08000a92 <PendSV_Handler>:

/**
  * @brief This function handles Pendable request for system service.
  */
void PendSV_Handler(void)
{
 8000a92:	b480      	push	{r7}
 8000a94:	af00      	add	r7, sp, #0

  /* USER CODE END PendSV_IRQn 0 */
  /* USER CODE BEGIN PendSV_IRQn 1 */

  /* USER CODE END PendSV_IRQn 1 */
}
 8000a96:	bf00      	nop
 8000a98:	46bd      	mov	sp, r7
 8000a9a:	bc80      	pop	{r7}
 8000a9c:	4770      	bx	lr

08000a9e <SysTick_Handler>:

/**
  * @brief This function handles System tick timer.
  */
void SysTick_Handler(void)
{
 8000a9e:	b580      	push	{r7, lr}
 8000aa0:	af00      	add	r7, sp, #0
  /* USER CODE BEGIN SysTick_IRQn 0 */

  /* USER CODE END SysTick_IRQn 0 */
  HAL_IncTick();
 8000aa2:	f000 f8bf 	bl	8000c24 <HAL_IncTick>
  /* USER CODE BEGIN SysTick_IRQn 1 */

  /* USER CODE END SysTick_IRQn 1 */
}
 8000aa6:	bf00      	nop
 8000aa8:	bd80      	pop	{r7, pc}
	...

08000aac <TIM2_IRQHandler>:

/**
  * @brief This function handles TIM2 global interrupt.
  */
void TIM2_IRQHandler(void)
{
 8000aac:	b580      	push	{r7, lr}
 8000aae:	af00      	add	r7, sp, #0
  /* USER CODE BEGIN TIM2_IRQn 0 */

  /* USER CODE END TIM2_IRQn 0 */
  HAL_TIM_IRQHandler(&htim2);
 8000ab0:	4802      	ldr	r0, [pc, #8]	; (8000abc <TIM2_IRQHandler+0x10>)
 8000ab2:	f001 f975 	bl	8001da0 <HAL_TIM_IRQHandler>
  /* USER CODE BEGIN TIM2_IRQn 1 */

  /* USER CODE END TIM2_IRQn 1 */
}
 8000ab6:	bf00      	nop
 8000ab8:	bd80      	pop	{r7, pc}
 8000aba:	bf00      	nop
 8000abc:	200000ac 	.word	0x200000ac

08000ac0 <USART1_IRQHandler>:

/**
  * @brief This function handles USART1 global interrupt.
  */
void USART1_IRQHandler(void)
{
 8000ac0:	b580      	push	{r7, lr}
 8000ac2:	af00      	add	r7, sp, #0
  /* USER CODE BEGIN USART1_IRQn 0 */

  /* USER CODE END USART1_IRQn 0 */
  HAL_UART_IRQHandler(&huart1);
 8000ac4:	4802      	ldr	r0, [pc, #8]	; (8000ad0 <USART1_IRQHandler+0x10>)
 8000ac6:	f001 fd8b 	bl	80025e0 <HAL_UART_IRQHandler>
  /* USER CODE BEGIN USART1_IRQn 1 */

  /* USER CODE END USART1_IRQn 1 */
}
 8000aca:	bf00      	nop
 8000acc:	bd80      	pop	{r7, pc}
 8000ace:	bf00      	nop
 8000ad0:	200000f4 	.word	0x200000f4

08000ad4 <_sbrk>:
 *
 * @param incr Memory size
 * @return Pointer to allocated memory
 */
void *_sbrk(ptrdiff_t incr)
{
 8000ad4:	b580      	push	{r7, lr}
 8000ad6:	b086      	sub	sp, #24
 8000ad8:	af00      	add	r7, sp, #0
 8000ada:	6078      	str	r0, [r7, #4]
  extern uint8_t _end; /* Symbol defined in the linker script */
  extern uint8_t _estack; /* Symbol defined in the linker script */
  extern uint32_t _Min_Stack_Size; /* Symbol defined in the linker script */
  const uint32_t stack_limit = (uint32_t)&_estack - (uint32_t)&_Min_Stack_Size;
 8000adc:	4a14      	ldr	r2, [pc, #80]	; (8000b30 <_sbrk+0x5c>)
 8000ade:	4b15      	ldr	r3, [pc, #84]	; (8000b34 <_sbrk+0x60>)
 8000ae0:	1ad3      	subs	r3, r2, r3
 8000ae2:	617b      	str	r3, [r7, #20]
  const uint8_t *max_heap = (uint8_t *)stack_limit;
 8000ae4:	697b      	ldr	r3, [r7, #20]
 8000ae6:	613b      	str	r3, [r7, #16]
  uint8_t *prev_heap_end;

  /* Initialize heap end at first call */
  if (NULL == __sbrk_heap_end)
 8000ae8:	4b13      	ldr	r3, [pc, #76]	; (8000b38 <_sbrk+0x64>)
 8000aea:	681b      	ldr	r3, [r3, #0]
 8000aec:	2b00      	cmp	r3, #0
 8000aee:	d102      	bne.n	8000af6 <_sbrk+0x22>
  {
    __sbrk_heap_end = &_end;
 8000af0:	4b11      	ldr	r3, [pc, #68]	; (8000b38 <_sbrk+0x64>)
 8000af2:	4a12      	ldr	r2, [pc, #72]	; (8000b3c <_sbrk+0x68>)
 8000af4:	601a      	str	r2, [r3, #0]
  }

  /* Protect heap from growing into the reserved MSP stack */
  if (__sbrk_heap_end + incr > max_heap)
 8000af6:	4b10      	ldr	r3, [pc, #64]	; (8000b38 <_sbrk+0x64>)
 8000af8:	681a      	ldr	r2, [r3, #0]
 8000afa:	687b      	ldr	r3, [r7, #4]
 8000afc:	4413      	add	r3, r2
 8000afe:	693a      	ldr	r2, [r7, #16]
 8000b00:	429a      	cmp	r2, r3
 8000b02:	d207      	bcs.n	8000b14 <_sbrk+0x40>
  {
    errno = ENOMEM;
 8000b04:	f002 fabc 	bl	8003080 <__errno>
 8000b08:	4603      	mov	r3, r0
 8000b0a:	220c      	movs	r2, #12
 8000b0c:	601a      	str	r2, [r3, #0]
    return (void *)-1;
 8000b0e:	f04f 33ff 	mov.w	r3, #4294967295
 8000b12:	e009      	b.n	8000b28 <_sbrk+0x54>
  }

  prev_heap_end = __sbrk_heap_end;
 8000b14:	4b08      	ldr	r3, [pc, #32]	; (8000b38 <_sbrk+0x64>)
 8000b16:	681b      	ldr	r3, [r3, #0]
 8000b18:	60fb      	str	r3, [r7, #12]
  __sbrk_heap_end += incr;
 8000b1a:	4b07      	ldr	r3, [pc, #28]	; (8000b38 <_sbrk+0x64>)
 8000b1c:	681a      	ldr	r2, [r3, #0]
 8000b1e:	687b      	ldr	r3, [r7, #4]
 8000b20:	4413      	add	r3, r2
 8000b22:	4a05      	ldr	r2, [pc, #20]	; (8000b38 <_sbrk+0x64>)
 8000b24:	6013      	str	r3, [r2, #0]

  return (void *)prev_heap_end;
 8000b26:	68fb      	ldr	r3, [r7, #12]
}
 8000b28:	4618      	mov	r0, r3
 8000b2a:	3718      	adds	r7, #24
 8000b2c:	46bd      	mov	sp, r7
 8000b2e:	bd80      	pop	{r7, pc}
 8000b30:	20002800 	.word	0x20002800
 8000b34:	00000400 	.word	0x00000400
 8000b38:	2000017c 	.word	0x2000017c
 8000b3c:	20000198 	.word	0x20000198

08000b40 <SystemInit>:
  * @note   This function should be used only after reset.
  * @param  None
  * @retval None
  */
void SystemInit (void)
{
 8000b40:	b480      	push	{r7}
 8000b42:	af00      	add	r7, sp, #0

  /* Configure the Vector Table location -------------------------------------*/
#if defined(USER_VECT_TAB_ADDRESS)
  SCB->VTOR = VECT_TAB_BASE_ADDRESS | VECT_TAB_OFFSET; /* Vector Table Relocation in Internal SRAM. */
#endif /* USER_VECT_TAB_ADDRESS */
}
 8000b44:	bf00      	nop
 8000b46:	46bd      	mov	sp, r7
 8000b48:	bc80      	pop	{r7}
 8000b4a:	4770      	bx	lr

08000b4c <Reset_Handler>:
  .weak Reset_Handler
  .type Reset_Handler, %function
Reset_Handler:

/* Call the clock system initialization function.*/
    bl  SystemInit
 8000b4c:	f7ff fff8 	bl	8000b40 <SystemInit>

/* Copy the data segment initializers from flash to SRAM */
  ldr r0, =_sdata
 8000b50:	480b      	ldr	r0, [pc, #44]	; (8000b80 <LoopFillZerobss+0xe>)
  ldr r1, =_edata
 8000b52:	490c      	ldr	r1, [pc, #48]	; (8000b84 <LoopFillZerobss+0x12>)
  ldr r2, =_sidata
 8000b54:	4a0c      	ldr	r2, [pc, #48]	; (8000b88 <LoopFillZerobss+0x16>)
  movs r3, #0
 8000b56:	2300      	movs	r3, #0
  b LoopCopyDataInit
 8000b58:	e002      	b.n	8000b60 <LoopCopyDataInit>

08000b5a <CopyDataInit>:

CopyDataInit:
  ldr r4, [r2, r3]
 8000b5a:	58d4      	ldr	r4, [r2, r3]
  str r4, [r0, r3]
 8000b5c:	50c4      	str	r4, [r0, r3]
  adds r3, r3, #4
 8000b5e:	3304      	adds	r3, #4

08000b60 <LoopCopyDataInit>:

LoopCopyDataInit:
  adds r4, r0, r3
 8000b60:	18c4      	adds	r4, r0, r3
  cmp r4, r1
 8000b62:	428c      	cmp	r4, r1
  bcc CopyDataInit
 8000b64:	d3f9      	bcc.n	8000b5a <CopyDataInit>
  
/* Zero fill the bss segment. */
  ldr r2, =_sbss
 8000b66:	4a09      	ldr	r2, [pc, #36]	; (8000b8c <LoopFillZerobss+0x1a>)
  ldr r4, =_ebss
 8000b68:	4c09      	ldr	r4, [pc, #36]	; (8000b90 <LoopFillZerobss+0x1e>)
  movs r3, #0
 8000b6a:	2300      	movs	r3, #0
  b LoopFillZerobss
 8000b6c:	e001      	b.n	8000b72 <LoopFillZerobss>

08000b6e <FillZerobss>:

FillZerobss:
  str  r3, [r2]
 8000b6e:	6013      	str	r3, [r2, #0]
  adds r2, r2, #4
 8000b70:	3204      	adds	r2, #4

08000b72 <LoopFillZerobss>:

LoopFillZerobss:
  cmp r2, r4
 8000b72:	42a2      	cmp	r2, r4
  bcc FillZerobss
 8000b74:	d3fb      	bcc.n	8000b6e <FillZerobss>

/* Call static constructors */
    bl __libc_init_array
 8000b76:	f002 fa89 	bl	800308c <__libc_init_array>
/* Call the application's entry point.*/
  bl main
 8000b7a:	f7ff fb2b 	bl	80001d4 <main>
  bx lr
 8000b7e:	4770      	bx	lr
  ldr r0, =_sdata
 8000b80:	20000000 	.word	0x20000000
  ldr r1, =_edata
 8000b84:	20000070 	.word	0x20000070
  ldr r2, =_sidata
 8000b88:	08003ad8 	.word	0x08003ad8
  ldr r2, =_sbss
 8000b8c:	20000070 	.word	0x20000070
  ldr r4, =_ebss
 8000b90:	20000194 	.word	0x20000194

08000b94 <ADC1_2_IRQHandler>:
 * @retval : None
*/
    .section .text.Default_Handler,"ax",%progbits
Default_Handler:
Infinite_Loop:
  b Infinite_Loop
 8000b94:	e7fe      	b.n	8000b94 <ADC1_2_IRQHandler>
	...

08000b98 <HAL_Init>:
  *         need to ensure that the SysTick time base is always set to 1 millisecond
  *         to have correct HAL operation.
  * @retval HAL status
  */
HAL_StatusTypeDef HAL_Init(void)
{
 8000b98:	b580      	push	{r7, lr}
 8000b9a:	af00      	add	r7, sp, #0
    defined(STM32F102x6) || defined(STM32F102xB) || \
    defined(STM32F103x6) || defined(STM32F103xB) || defined(STM32F103xE) || defined(STM32F103xG) || \
    defined(STM32F105xC) || defined(STM32F107xC)

  /* Prefetch buffer is not available on value line devices */
  __HAL_FLASH_PREFETCH_BUFFER_ENABLE();
 8000b9c:	4b08      	ldr	r3, [pc, #32]	; (8000bc0 <HAL_Init+0x28>)
 8000b9e:	681b      	ldr	r3, [r3, #0]
 8000ba0:	4a07      	ldr	r2, [pc, #28]	; (8000bc0 <HAL_Init+0x28>)
 8000ba2:	f043 0310 	orr.w	r3, r3, #16
 8000ba6:	6013      	str	r3, [r2, #0]
#endif
#endif /* PREFETCH_ENABLE */

  /* Set Interrupt Group Priority */
  HAL_NVIC_SetPriorityGrouping(NVIC_PRIORITYGROUP_4);
 8000ba8:	2003      	movs	r0, #3
 8000baa:	f000 f93f 	bl	8000e2c <HAL_NVIC_SetPriorityGrouping>

  /* Use systick as time base source and configure 1ms tick (default clock after Reset is HSI) */
  HAL_InitTick(TICK_INT_PRIORITY);
 8000bae:	200f      	movs	r0, #15
 8000bb0:	f000 f808 	bl	8000bc4 <HAL_InitTick>

  /* Init the low level hardware */
  HAL_MspInit();
 8000bb4:	f7ff feb8 	bl	8000928 <HAL_MspInit>

  /* Return function status */
  return HAL_OK;
 8000bb8:	2300      	movs	r3, #0
}
 8000bba:	4618      	mov	r0, r3
 8000bbc:	bd80      	pop	{r7, pc}
 8000bbe:	bf00      	nop
 8000bc0:	40022000 	.word	0x40022000

08000bc4 <HAL_InitTick>:
  *       implementation  in user file.
  * @param TickPriority Tick interrupt priority.
  * @retval HAL status
  */
__weak HAL_StatusTypeDef HAL_InitTick(uint32_t TickPriority)
{
 8000bc4:	b580      	push	{r7, lr}
 8000bc6:	b082      	sub	sp, #8
 8000bc8:	af00      	add	r7, sp, #0
 8000bca:	6078      	str	r0, [r7, #4]
  /* Configure the SysTick to have interrupt in 1ms time basis*/
  if (HAL_SYSTICK_Config(SystemCoreClock / (1000U / uwTickFreq)) > 0U)
 8000bcc:	4b12      	ldr	r3, [pc, #72]	; (8000c18 <HAL_InitTick+0x54>)
 8000bce:	681a      	ldr	r2, [r3, #0]
 8000bd0:	4b12      	ldr	r3, [pc, #72]	; (8000c1c <HAL_InitTick+0x58>)
 8000bd2:	781b      	ldrb	r3, [r3, #0]
 8000bd4:	4619      	mov	r1, r3
 8000bd6:	f44f 737a 	mov.w	r3, #1000	; 0x3e8
 8000bda:	fbb3 f3f1 	udiv	r3, r3, r1
 8000bde:	fbb2 f3f3 	udiv	r3, r2, r3
 8000be2:	4618      	mov	r0, r3
 8000be4:	f000 f957 	bl	8000e96 <HAL_SYSTICK_Config>
 8000be8:	4603      	mov	r3, r0
 8000bea:	2b00      	cmp	r3, #0
 8000bec:	d001      	beq.n	8000bf2 <HAL_InitTick+0x2e>
  {
    return HAL_ERROR;
 8000bee:	2301      	movs	r3, #1
 8000bf0:	e00e      	b.n	8000c10 <HAL_InitTick+0x4c>
  }

  /* Configure the SysTick IRQ priority */
  if (TickPriority < (1UL << __NVIC_PRIO_BITS))
 8000bf2:	687b      	ldr	r3, [r7, #4]
 8000bf4:	2b0f      	cmp	r3, #15
 8000bf6:	d80a      	bhi.n	8000c0e <HAL_InitTick+0x4a>
  {
    HAL_NVIC_SetPriority(SysTick_IRQn, TickPriority, 0U);
 8000bf8:	2200      	movs	r2, #0
 8000bfa:	6879      	ldr	r1, [r7, #4]
 8000bfc:	f04f 30ff 	mov.w	r0, #4294967295
 8000c00:	f000 f91f 	bl	8000e42 <HAL_NVIC_SetPriority>
    uwTickPrio = TickPriority;
 8000c04:	4a06      	ldr	r2, [pc, #24]	; (8000c20 <HAL_InitTick+0x5c>)
 8000c06:	687b      	ldr	r3, [r7, #4]
 8000c08:	6013      	str	r3, [r2, #0]
  {
    return HAL_ERROR;
  }

  /* Return function status */
  return HAL_OK;
 8000c0a:	2300      	movs	r3, #0
 8000c0c:	e000      	b.n	8000c10 <HAL_InitTick+0x4c>
    return HAL_ERROR;
 8000c0e:	2301      	movs	r3, #1
}
 8000c10:	4618      	mov	r0, r3
 8000c12:	3708      	adds	r7, #8
 8000c14:	46bd      	mov	sp, r7
 8000c16:	bd80      	pop	{r7, pc}
 8000c18:	20000000 	.word	0x20000000
 8000c1c:	20000008 	.word	0x20000008
 8000c20:	20000004 	.word	0x20000004

08000c24 <HAL_IncTick>:
  * @note This function is declared as __weak to be overwritten in case of other
  *      implementations in user file.
  * @retval None
  */
__weak void HAL_IncTick(void)
{
 8000c24:	b480      	push	{r7}
 8000c26:	af00      	add	r7, sp, #0
  uwTick += uwTickFreq;
 8000c28:	4b05      	ldr	r3, [pc, #20]	; (8000c40 <HAL_IncTick+0x1c>)
 8000c2a:	781b      	ldrb	r3, [r3, #0]
 8000c2c:	461a      	mov	r2, r3
 8000c2e:	4b05      	ldr	r3, [pc, #20]	; (8000c44 <HAL_IncTick+0x20>)
 8000c30:	681b      	ldr	r3, [r3, #0]
 8000c32:	4413      	add	r3, r2
 8000c34:	4a03      	ldr	r2, [pc, #12]	; (8000c44 <HAL_IncTick+0x20>)
 8000c36:	6013      	str	r3, [r2, #0]
}
 8000c38:	bf00      	nop
 8000c3a:	46bd      	mov	sp, r7
 8000c3c:	bc80      	pop	{r7}
 8000c3e:	4770      	bx	lr
 8000c40:	20000008 	.word	0x20000008
 8000c44:	20000180 	.word	0x20000180

08000c48 <HAL_GetTick>:
  * @note  This function is declared as __weak to be overwritten in case of other
  *       implementations in user file.
  * @retval tick value
  */
__weak uint32_t HAL_GetTick(void)
{
 8000c48:	b480      	push	{r7}
 8000c4a:	af00      	add	r7, sp, #0
  return uwTick;
 8000c4c:	4b02      	ldr	r3, [pc, #8]	; (8000c58 <HAL_GetTick+0x10>)
 8000c4e:	681b      	ldr	r3, [r3, #0]
}
 8000c50:	4618      	mov	r0, r3
 8000c52:	46bd      	mov	sp, r7
 8000c54:	bc80      	pop	{r7}
 8000c56:	4770      	bx	lr
 8000c58:	20000180 	.word	0x20000180

08000c5c <HAL_SuspendTick>:
  * @note This function is declared as __weak to be overwritten in case of other
  *       implementations in user file.
  * @retval None
  */
__weak void HAL_SuspendTick(void)
{
 8000c5c:	b480      	push	{r7}
 8000c5e:	af00      	add	r7, sp, #0
  /* Disable SysTick Interrupt */
  CLEAR_BIT(SysTick->CTRL, SysTick_CTRL_TICKINT_Msk);
 8000c60:	4b04      	ldr	r3, [pc, #16]	; (8000c74 <HAL_SuspendTick+0x18>)
 8000c62:	681b      	ldr	r3, [r3, #0]
 8000c64:	4a03      	ldr	r2, [pc, #12]	; (8000c74 <HAL_SuspendTick+0x18>)
 8000c66:	f023 0302 	bic.w	r3, r3, #2
 8000c6a:	6013      	str	r3, [r2, #0]
}
 8000c6c:	bf00      	nop
 8000c6e:	46bd      	mov	sp, r7
 8000c70:	bc80      	pop	{r7}
 8000c72:	4770      	bx	lr
 8000c74:	e000e010 	.word	0xe000e010

08000c78 <HAL_ResumeTick>:
  * @note This function is declared as __weak to be overwritten in case of other
  *       implementations in user file.
  * @retval None
  */
__weak void HAL_ResumeTick(void)
{
 8000c78:	b480      	push	{r7}
 8000c7a:	af00      	add	r7, sp, #0
  /* Enable SysTick Interrupt */
  SET_BIT(SysTick->CTRL, SysTick_CTRL_TICKINT_Msk);
 8000c7c:	4b04      	ldr	r3, [pc, #16]	; (8000c90 <HAL_ResumeTick+0x18>)
 8000c7e:	681b      	ldr	r3, [r3, #0]
 8000c80:	4a03      	ldr	r2, [pc, #12]	; (8000c90 <HAL_ResumeTick+0x18>)
 8000c82:	f043 0302 	orr.w	r3, r3, #2
 8000c86:	6013      	str	r3, [r2, #0]
}
 8000c88:	bf00      	nop
 8000c8a:	46bd      	mov	sp, r7
 8000c8c:	bc80      	pop	{r7}
 8000c8e:	4770      	bx	lr
 8000c90:	e000e010 	.word	0xe000e010

08000c94 <__NVIC_SetPriorityGrouping>:
           In case of a conflict between priority grouping and available
           priority bits (__NVIC_PRIO_BITS), the smallest possible priority group is set.
  \param [in]      PriorityGroup  Priority grouping field.
 */
__STATIC_INLINE void __NVIC_SetPriorityGrouping(uint32_t PriorityGroup)
{
 8000c94:	b480      	push	{r7}
 8000c96:	b085      	sub	sp, #20
 8000c98:	af00      	add	r7, sp, #0
 8000c9a:	6078      	str	r0, [r7, #4]
  uint32_t reg_value;
  uint32_t PriorityGroupTmp = (PriorityGroup & (uint32_t)0x07UL);             /* only values 0..7 are used          */
 8000c9c:	687b      	ldr	r3, [r7, #4]
 8000c9e:	f003 0307 	and.w	r3, r3, #7
 8000ca2:	60fb      	str	r3, [r7, #12]

  reg_value  =  SCB->AIRCR;                                                   /* read old register configuration    */
 8000ca4:	4b0c      	ldr	r3, [pc, #48]	; (8000cd8 <__NVIC_SetPriorityGrouping+0x44>)
 8000ca6:	68db      	ldr	r3, [r3, #12]
 8000ca8:	60bb      	str	r3, [r7, #8]
  reg_value &= ~((uint32_t)(SCB_AIRCR_VECTKEY_Msk | SCB_AIRCR_PRIGROUP_Msk)); /* clear bits to change               */
 8000caa:	68ba      	ldr	r2, [r7, #8]
 8000cac:	f64f 03ff 	movw	r3, #63743	; 0xf8ff
 8000cb0:	4013      	ands	r3, r2
 8000cb2:	60bb      	str	r3, [r7, #8]
  reg_value  =  (reg_value                                   |
                ((uint32_t)0x5FAUL << SCB_AIRCR_VECTKEY_Pos) |
                (PriorityGroupTmp << SCB_AIRCR_PRIGROUP_Pos) );               /* Insert write key and priority group */
 8000cb4:	68fb      	ldr	r3, [r7, #12]
 8000cb6:	021a      	lsls	r2, r3, #8
                ((uint32_t)0x5FAUL << SCB_AIRCR_VECTKEY_Pos) |
 8000cb8:	68bb      	ldr	r3, [r7, #8]
 8000cba:	4313      	orrs	r3, r2
  reg_value  =  (reg_value                                   |
 8000cbc:	f043 63bf 	orr.w	r3, r3, #100139008	; 0x5f80000
 8000cc0:	f443 3300 	orr.w	r3, r3, #131072	; 0x20000
 8000cc4:	60bb      	str	r3, [r7, #8]
  SCB->AIRCR =  reg_value;
 8000cc6:	4a04      	ldr	r2, [pc, #16]	; (8000cd8 <__NVIC_SetPriorityGrouping+0x44>)
 8000cc8:	68bb      	ldr	r3, [r7, #8]
 8000cca:	60d3      	str	r3, [r2, #12]
}
 8000ccc:	bf00      	nop
 8000cce:	3714      	adds	r7, #20
 8000cd0:	46bd      	mov	sp, r7
 8000cd2:	bc80      	pop	{r7}
 8000cd4:	4770      	bx	lr
 8000cd6:	bf00      	nop
 8000cd8:	e000ed00 	.word	0xe000ed00

08000cdc <__NVIC_GetPriorityGrouping>:
  \brief   Get Priority Grouping
  \details Reads the priority grouping field from the NVIC Interrupt Controller.
  \return                Priority grouping field (SCB->AIRCR [10:8] PRIGROUP field).
 */
__STATIC_INLINE uint32_t __NVIC_GetPriorityGrouping(void)
{
 8000cdc:	b480      	push	{r7}
 8000cde:	af00      	add	r7, sp, #0
  return ((uint32_t)((SCB->AIRCR & SCB_AIRCR_PRIGROUP_Msk) >> SCB_AIRCR_PRIGROUP_Pos));
 8000ce0:	4b04      	ldr	r3, [pc, #16]	; (8000cf4 <__NVIC_GetPriorityGrouping+0x18>)
 8000ce2:	68db      	ldr	r3, [r3, #12]
 8000ce4:	0a1b      	lsrs	r3, r3, #8
 8000ce6:	f003 0307 	and.w	r3, r3, #7
}
 8000cea:	4618      	mov	r0, r3
 8000cec:	46bd      	mov	sp, r7
 8000cee:	bc80      	pop	{r7}
 8000cf0:	4770      	bx	lr
 8000cf2:	bf00      	nop
 8000cf4:	e000ed00 	.word	0xe000ed00

08000cf8 <__NVIC_EnableIRQ>:
  \details Enables a device specific interrupt in the NVIC interrupt controller.
  \param [in]      IRQn  Device specific interrupt number.
  \note    IRQn must not be negative.
 */
__STATIC_INLINE void __NVIC_EnableIRQ(IRQn_Type IRQn)
{
 8000cf8:	b480      	push	{r7}
 8000cfa:	b083      	sub	sp, #12
 8000cfc:	af00      	add	r7, sp, #0
 8000cfe:	4603      	mov	r3, r0
 8000d00:	71fb      	strb	r3, [r7, #7]
  if ((int32_t)(IRQn) >= 0)
 8000d02:	f997 3007 	ldrsb.w	r3, [r7, #7]
 8000d06:	2b00      	cmp	r3, #0
 8000d08:	db0b      	blt.n	8000d22 <__NVIC_EnableIRQ+0x2a>
  {
    NVIC->ISER[(((uint32_t)IRQn) >> 5UL)] = (uint32_t)(1UL << (((uint32_t)IRQn) & 0x1FUL));
 8000d0a:	79fb      	ldrb	r3, [r7, #7]
 8000d0c:	f003 021f 	and.w	r2, r3, #31
 8000d10:	4906      	ldr	r1, [pc, #24]	; (8000d2c <__NVIC_EnableIRQ+0x34>)
 8000d12:	f997 3007 	ldrsb.w	r3, [r7, #7]
 8000d16:	095b      	lsrs	r3, r3, #5
 8000d18:	2001      	movs	r0, #1
 8000d1a:	fa00 f202 	lsl.w	r2, r0, r2
 8000d1e:	f841 2023 	str.w	r2, [r1, r3, lsl #2]
  }
}
 8000d22:	bf00      	nop
 8000d24:	370c      	adds	r7, #12
 8000d26:	46bd      	mov	sp, r7
 8000d28:	bc80      	pop	{r7}
 8000d2a:	4770      	bx	lr
 8000d2c:	e000e100 	.word	0xe000e100

08000d30 <__NVIC_SetPriority>:
  \param [in]      IRQn  Interrupt number.
  \param [in]  priority  Priority to set.
  \note    The priority cannot be set for every processor exception.
 */
__STATIC_INLINE void __NVIC_SetPriority(IRQn_Type IRQn, uint32_t priority)
{
 8000d30:	b480      	push	{r7}
 8000d32:	b083      	sub	sp, #12
 8000d34:	af00      	add	r7, sp, #0
 8000d36:	4603      	mov	r3, r0
 8000d38:	6039      	str	r1, [r7, #0]
 8000d3a:	71fb      	strb	r3, [r7, #7]
  if ((int32_t)(IRQn) >= 0)
 8000d3c:	f997 3007 	ldrsb.w	r3, [r7, #7]
 8000d40:	2b00      	cmp	r3, #0
 8000d42:	db0a      	blt.n	8000d5a <__NVIC_SetPriority+0x2a>
  {
    NVIC->IP[((uint32_t)IRQn)]               = (uint8_t)((priority << (8U - __NVIC_PRIO_BITS)) & (uint32_t)0xFFUL);
 8000d44:	683b      	ldr	r3, [r7, #0]
 8000d46:	b2da      	uxtb	r2, r3
 8000d48:	490c      	ldr	r1, [pc, #48]	; (8000d7c <__NVIC_SetPriority+0x4c>)
 8000d4a:	f997 3007 	ldrsb.w	r3, [r7, #7]
 8000d4e:	0112      	lsls	r2, r2, #4
 8000d50:	b2d2      	uxtb	r2, r2
 8000d52:	440b      	add	r3, r1
 8000d54:	f883 2300 	strb.w	r2, [r3, #768]	; 0x300
  }
  else
  {
    SCB->SHP[(((uint32_t)IRQn) & 0xFUL)-4UL] = (uint8_t)((priority << (8U - __NVIC_PRIO_BITS)) & (uint32_t)0xFFUL);
  }
}
 8000d58:	e00a      	b.n	8000d70 <__NVIC_SetPriority+0x40>
    SCB->SHP[(((uint32_t)IRQn) & 0xFUL)-4UL] = (uint8_t)((priority << (8U - __NVIC_PRIO_BITS)) & (uint32_t)0xFFUL);
 8000d5a:	683b      	ldr	r3, [r7, #0]
 8000d5c:	b2da      	uxtb	r2, r3
 8000d5e:	4908      	ldr	r1, [pc, #32]	; (8000d80 <__NVIC_SetPriority+0x50>)
 8000d60:	79fb      	ldrb	r3, [r7, #7]
 8000d62:	f003 030f 	and.w	r3, r3, #15
 8000d66:	3b04      	subs	r3, #4
 8000d68:	0112      	lsls	r2, r2, #4
 8000d6a:	b2d2      	uxtb	r2, r2
 8000d6c:	440b      	add	r3, r1
 8000d6e:	761a      	strb	r2, [r3, #24]
}
 8000d70:	bf00      	nop
 8000d72:	370c      	adds	r7, #12
 8000d74:	46bd      	mov	sp, r7
 8000d76:	bc80      	pop	{r7}
 8000d78:	4770      	bx	lr
 8000d7a:	bf00      	nop
 8000d7c:	e000e100 	.word	0xe000e100
 8000d80:	e000ed00 	.word	0xe000ed00

08000d84 <NVIC_EncodePriority>:
  \param [in]   PreemptPriority  Preemptive priority value (starting from 0).
  \param [in]       SubPriority  Subpriority value (starting from 0).
  \return                        Encoded priority. Value can be used in the function \ref NVIC_SetPriority().
 */
__STATIC_INLINE uint32_t NVIC_EncodePriority (uint32_t PriorityGroup, uint32_t PreemptPriority, uint32_t SubPriority)
{
 8000d84:	b480      	push	{r7}
 8000d86:	b089      	sub	sp, #36	; 0x24
 8000d88:	af00      	add	r7, sp, #0
 8000d8a:	60f8      	str	r0, [r7, #12]
 8000d8c:	60b9      	str	r1, [r7, #8]
 8000d8e:	607a      	str	r2, [r7, #4]
  uint32_t PriorityGroupTmp = (PriorityGroup & (uint32_t)0x07UL);   /* only values 0..7 are used          */
 8000d90:	68fb      	ldr	r3, [r7, #12]
 8000d92:	f003 0307 	and.w	r3, r3, #7
 8000d96:	61fb      	str	r3, [r7, #28]
  uint32_t PreemptPriorityBits;
  uint32_t SubPriorityBits;

  PreemptPriorityBits = ((7UL - PriorityGroupTmp) > (uint32_t)(__NVIC_PRIO_BITS)) ? (uint32_t)(__NVIC_PRIO_BITS) : (uint32_t)(7UL - PriorityGroupTmp);
 8000d98:	69fb      	ldr	r3, [r7, #28]
 8000d9a:	f1c3 0307 	rsb	r3, r3, #7
 8000d9e:	2b04      	cmp	r3, #4
 8000da0:	bf28      	it	cs
 8000da2:	2304      	movcs	r3, #4
 8000da4:	61bb      	str	r3, [r7, #24]
  SubPriorityBits     = ((PriorityGroupTmp + (uint32_t)(__NVIC_PRIO_BITS)) < (uint32_t)7UL) ? (uint32_t)0UL : (uint32_t)((PriorityGroupTmp - 7UL) + (uint32_t)(__NVIC_PRIO_BITS));
 8000da6:	69fb      	ldr	r3, [r7, #28]
 8000da8:	3304      	adds	r3, #4
 8000daa:	2b06      	cmp	r3, #6
 8000dac:	d902      	bls.n	8000db4 <NVIC_EncodePriority+0x30>
 8000dae:	69fb      	ldr	r3, [r7, #28]
 8000db0:	3b03      	subs	r3, #3
 8000db2:	e000      	b.n	8000db6 <NVIC_EncodePriority+0x32>
 8000db4:	2300      	movs	r3, #0
 8000db6:	617b      	str	r3, [r7, #20]

  return (
           ((PreemptPriority & (uint32_t)((1UL << (PreemptPriorityBits)) - 1UL)) << SubPriorityBits) |
 8000db8:	f04f 32ff 	mov.w	r2, #4294967295
 8000dbc:	69bb      	ldr	r3, [r7, #24]
 8000dbe:	fa02 f303 	lsl.w	r3, r2, r3
 8000dc2:	43da      	mvns	r2, r3
 8000dc4:	68bb      	ldr	r3, [r7, #8]
 8000dc6:	401a      	ands	r2, r3
 8000dc8:	697b      	ldr	r3, [r7, #20]
 8000dca:	409a      	lsls	r2, r3
           ((SubPriority     & (uint32_t)((1UL << (SubPriorityBits    )) - 1UL)))
 8000dcc:	f04f 31ff 	mov.w	r1, #4294967295
 8000dd0:	697b      	ldr	r3, [r7, #20]
 8000dd2:	fa01 f303 	lsl.w	r3, r1, r3
 8000dd6:	43d9      	mvns	r1, r3
 8000dd8:	687b      	ldr	r3, [r7, #4]
 8000dda:	400b      	ands	r3, r1
           ((PreemptPriority & (uint32_t)((1UL << (PreemptPriorityBits)) - 1UL)) << SubPriorityBits) |
 8000ddc:	4313      	orrs	r3, r2
         );
}
 8000dde:	4618      	mov	r0, r3
 8000de0:	3724      	adds	r7, #36	; 0x24
 8000de2:	46bd      	mov	sp, r7
 8000de4:	bc80      	pop	{r7}
 8000de6:	4770      	bx	lr

08000de8 <SysTick_Config>:
  \note    When the variable <b>__Vendor_SysTickConfig</b> is set to 1, then the
           function <b>SysTick_Config</b> is not included. In this case, the file <b><i>device</i>.h</b>
           must contain a vendor-specific implementation of this function.
 */
__STATIC_INLINE uint32_t SysTick_Config(uint32_t ticks)
{
 8000de8:	b580      	push	{r7, lr}
 8000dea:	b082      	sub	sp, #8
 8000dec:	af00      	add	r7, sp, #0
 8000dee:	6078      	str	r0, [r7, #4]
  if ((ticks - 1UL) > SysTick_LOAD_RELOAD_Msk)
 8000df0:	687b      	ldr	r3, [r7, #4]
 8000df2:	3b01      	subs	r3, #1
 8000df4:	f1b3 7f80 	cmp.w	r3, #16777216	; 0x1000000
 8000df8:	d301      	bcc.n	8000dfe <SysTick_Config+0x16>
  {
    return (1UL);                                                   /* Reload value impossible */
 8000dfa:	2301      	movs	r3, #1
 8000dfc:	e00f      	b.n	8000e1e <SysTick_Config+0x36>
  }

  SysTick->LOAD  = (uint32_t)(ticks - 1UL);                         /* set reload register */
 8000dfe:	4a0a      	ldr	r2, [pc, #40]	; (8000e28 <SysTick_Config+0x40>)
 8000e00:	687b      	ldr	r3, [r7, #4]
 8000e02:	3b01      	subs	r3, #1
 8000e04:	6053      	str	r3, [r2, #4]
  NVIC_SetPriority (SysTick_IRQn, (1UL << __NVIC_PRIO_BITS) - 1UL); /* set Priority for Systick Interrupt */
 8000e06:	210f      	movs	r1, #15
 8000e08:	f04f 30ff 	mov.w	r0, #4294967295
 8000e0c:	f7ff ff90 	bl	8000d30 <__NVIC_SetPriority>
  SysTick->VAL   = 0UL;                                             /* Load the SysTick Counter Value */
 8000e10:	4b05      	ldr	r3, [pc, #20]	; (8000e28 <SysTick_Config+0x40>)
 8000e12:	2200      	movs	r2, #0
 8000e14:	609a      	str	r2, [r3, #8]
  SysTick->CTRL  = SysTick_CTRL_CLKSOURCE_Msk |
 8000e16:	4b04      	ldr	r3, [pc, #16]	; (8000e28 <SysTick_Config+0x40>)
 8000e18:	2207      	movs	r2, #7
 8000e1a:	601a      	str	r2, [r3, #0]
                   SysTick_CTRL_TICKINT_Msk   |
                   SysTick_CTRL_ENABLE_Msk;                         /* Enable SysTick IRQ and SysTick Timer */
  return (0UL);                                                     /* Function successful */
 8000e1c:	2300      	movs	r3, #0
}
 8000e1e:	4618      	mov	r0, r3
 8000e20:	3708      	adds	r7, #8
 8000e22:	46bd      	mov	sp, r7
 8000e24:	bd80      	pop	{r7, pc}
 8000e26:	bf00      	nop
 8000e28:	e000e010 	.word	0xe000e010

08000e2c <HAL_NVIC_SetPriorityGrouping>:
  * @note   When the NVIC_PriorityGroup_0 is selected, IRQ preemption is no more possible. 
  *         The pending IRQ priority will be managed only by the subpriority. 
  * @retval None
  */
void HAL_NVIC_SetPriorityGrouping(uint32_t PriorityGroup)
{
 8000e2c:	b580      	push	{r7, lr}
 8000e2e:	b082      	sub	sp, #8
 8000e30:	af00      	add	r7, sp, #0
 8000e32:	6078      	str	r0, [r7, #4]
  /* Check the parameters */
  assert_param(IS_NVIC_PRIORITY_GROUP(PriorityGroup));
  
  /* Set the PRIGROUP[10:8] bits according to the PriorityGroup parameter value */
  NVIC_SetPriorityGrouping(PriorityGroup);
 8000e34:	6878      	ldr	r0, [r7, #4]
 8000e36:	f7ff ff2d 	bl	8000c94 <__NVIC_SetPriorityGrouping>
}
 8000e3a:	bf00      	nop
 8000e3c:	3708      	adds	r7, #8
 8000e3e:	46bd      	mov	sp, r7
 8000e40:	bd80      	pop	{r7, pc}

08000e42 <HAL_NVIC_SetPriority>:
  *         This parameter can be a value between 0 and 15
  *         A lower priority value indicates a higher priority.          
  * @retval None
  */
void HAL_NVIC_SetPriority(IRQn_Type IRQn, uint32_t PreemptPriority, uint32_t SubPriority)
{ 
 8000e42:	b580      	push	{r7, lr}
 8000e44:	b086      	sub	sp, #24
 8000e46:	af00      	add	r7, sp, #0
 8000e48:	4603      	mov	r3, r0
 8000e4a:	60b9      	str	r1, [r7, #8]
 8000e4c:	607a      	str	r2, [r7, #4]
 8000e4e:	73fb      	strb	r3, [r7, #15]
  uint32_t prioritygroup = 0x00U;
 8000e50:	2300      	movs	r3, #0
 8000e52:	617b      	str	r3, [r7, #20]
  
  /* Check the parameters */
  assert_param(IS_NVIC_SUB_PRIORITY(SubPriority));
  assert_param(IS_NVIC_PREEMPTION_PRIORITY(PreemptPriority));
  
  prioritygroup = NVIC_GetPriorityGrouping();
 8000e54:	f7ff ff42 	bl	8000cdc <__NVIC_GetPriorityGrouping>
 8000e58:	6178      	str	r0, [r7, #20]
  
  NVIC_SetPriority(IRQn, NVIC_EncodePriority(prioritygroup, PreemptPriority, SubPriority));
 8000e5a:	687a      	ldr	r2, [r7, #4]
 8000e5c:	68b9      	ldr	r1, [r7, #8]
 8000e5e:	6978      	ldr	r0, [r7, #20]
 8000e60:	f7ff ff90 	bl	8000d84 <NVIC_EncodePriority>
 8000e64:	4602      	mov	r2, r0
 8000e66:	f997 300f 	ldrsb.w	r3, [r7, #15]
 8000e6a:	4611      	mov	r1, r2
 8000e6c:	4618      	mov	r0, r3
 8000e6e:	f7ff ff5f 	bl	8000d30 <__NVIC_SetPriority>
}
 8000e72:	bf00      	nop
 8000e74:	3718      	adds	r7, #24
 8000e76:	46bd      	mov	sp, r7
 8000e78:	bd80      	pop	{r7, pc}

08000e7a <HAL_NVIC_EnableIRQ>:
  *         This parameter can be an enumerator of IRQn_Type enumeration
  *         (For the complete STM32 Devices IRQ Channels list, please refer to the appropriate CMSIS device file (stm32f10xxx.h))
  * @retval None
  */
void HAL_NVIC_EnableIRQ(IRQn_Type IRQn)
{
 8000e7a:	b580      	push	{r7, lr}
 8000e7c:	b082      	sub	sp, #8
 8000e7e:	af00      	add	r7, sp, #0
 8000e80:	4603      	mov	r3, r0
 8000e82:	71fb      	strb	r3, [r7, #7]
  /* Check the parameters */
  assert_param(IS_NVIC_DEVICE_IRQ(IRQn));

  /* Enable interrupt */
  NVIC_EnableIRQ(IRQn);
 8000e84:	f997 3007 	ldrsb.w	r3, [r7, #7]
 8000e88:	4618      	mov	r0, r3
 8000e8a:	f7ff ff35 	bl	8000cf8 <__NVIC_EnableIRQ>
}
 8000e8e:	bf00      	nop
 8000e90:	3708      	adds	r7, #8
 8000e92:	46bd      	mov	sp, r7
 8000e94:	bd80      	pop	{r7, pc}

08000e96 <HAL_SYSTICK_Config>:
  * @param  TicksNumb: Specifies the ticks Number of ticks between two interrupts.
  * @retval status:  - 0  Function succeeded.
  *                  - 1  Function failed.
  */
uint32_t HAL_SYSTICK_Config(uint32_t TicksNumb)
{
 8000e96:	b580      	push	{r7, lr}
 8000e98:	b082      	sub	sp, #8
 8000e9a:	af00      	add	r7, sp, #0
 8000e9c:	6078      	str	r0, [r7, #4]
   return SysTick_Config(TicksNumb);
 8000e9e:	6878      	ldr	r0, [r7, #4]
 8000ea0:	f7ff ffa2 	bl	8000de8 <SysTick_Config>
 8000ea4:	4603      	mov	r3, r0
}
 8000ea6:	4618      	mov	r0, r3
 8000ea8:	3708      	adds	r7, #8
 8000eaa:	46bd      	mov	sp, r7
 8000eac:	bd80      	pop	{r7, pc}

08000eae <HAL_DMA_Abort>:
  * @param  hdma: pointer to a DMA_HandleTypeDef structure that contains
  *               the configuration information for the specified DMA Channel.
  * @retval HAL status
  */
HAL_StatusTypeDef HAL_DMA_Abort(DMA_HandleTypeDef *hdma)
{
 8000eae:	b480      	push	{r7}
 8000eb0:	b085      	sub	sp, #20
 8000eb2:	af00      	add	r7, sp, #0
 8000eb4:	6078      	str	r0, [r7, #4]
  HAL_StatusTypeDef status = HAL_OK;
 8000eb6:	2300      	movs	r3, #0
 8000eb8:	73fb      	strb	r3, [r7, #15]
  
  if(hdma->State != HAL_DMA_STATE_BUSY)
 8000eba:	687b      	ldr	r3, [r7, #4]
 8000ebc:	f893 3021 	ldrb.w	r3, [r3, #33]	; 0x21
 8000ec0:	b2db      	uxtb	r3, r3
 8000ec2:	2b02      	cmp	r3, #2
 8000ec4:	d008      	beq.n	8000ed8 <HAL_DMA_Abort+0x2a>
  {
    /* no transfer ongoing */
    hdma->ErrorCode = HAL_DMA_ERROR_NO_XFER;
 8000ec6:	687b      	ldr	r3, [r7, #4]
 8000ec8:	2204      	movs	r2, #4
 8000eca:	639a      	str	r2, [r3, #56]	; 0x38
    
    /* Process Unlocked */
    __HAL_UNLOCK(hdma);
 8000ecc:	687b      	ldr	r3, [r7, #4]
 8000ece:	2200      	movs	r2, #0
 8000ed0:	f883 2020 	strb.w	r2, [r3, #32]
    
    return HAL_ERROR;
 8000ed4:	2301      	movs	r3, #1
 8000ed6:	e020      	b.n	8000f1a <HAL_DMA_Abort+0x6c>
  }
  else

  {
    /* Disable DMA IT */
    __HAL_DMA_DISABLE_IT(hdma, (DMA_IT_TC | DMA_IT_HT | DMA_IT_TE));
 8000ed8:	687b      	ldr	r3, [r7, #4]
 8000eda:	681b      	ldr	r3, [r3, #0]
 8000edc:	681a      	ldr	r2, [r3, #0]
 8000ede:	687b      	ldr	r3, [r7, #4]
 8000ee0:	681b      	ldr	r3, [r3, #0]
 8000ee2:	f022 020e 	bic.w	r2, r2, #14
 8000ee6:	601a      	str	r2, [r3, #0]
      
    /* Disable the channel */
    __HAL_DMA_DISABLE(hdma);
 8000ee8:	687b      	ldr	r3, [r7, #4]
 8000eea:	681b      	ldr	r3, [r3, #0]
 8000eec:	681a      	ldr	r2, [r3, #0]
 8000eee:	687b      	ldr	r3, [r7, #4]
 8000ef0:	681b      	ldr	r3, [r3, #0]
 8000ef2:	f022 0201 	bic.w	r2, r2, #1
 8000ef6:	601a      	str	r2, [r3, #0]
      
    /* Clear all flags */
    hdma->DmaBaseAddress->IFCR = (DMA_ISR_GIF1 << hdma->ChannelIndex);
 8000ef8:	687b      	ldr	r3, [r7, #4]
 8000efa:	6c1a      	ldr	r2, [r3, #64]	; 0x40
 8000efc:	687b      	ldr	r3, [r7, #4]
 8000efe:	6bdb      	ldr	r3, [r3, #60]	; 0x3c
 8000f00:	2101      	movs	r1, #1
 8000f02:	fa01 f202 	lsl.w	r2, r1, r2
 8000f06:	605a      	str	r2, [r3, #4]
  }
  /* Change the DMA state */
  hdma->State = HAL_DMA_STATE_READY;
 8000f08:	687b      	ldr	r3, [r7, #4]
 8000f0a:	2201      	movs	r2, #1
 8000f0c:	f883 2021 	strb.w	r2, [r3, #33]	; 0x21

  /* Process Unlocked */
  __HAL_UNLOCK(hdma);      
 8000f10:	687b      	ldr	r3, [r7, #4]
 8000f12:	2200      	movs	r2, #0
 8000f14:	f883 2020 	strb.w	r2, [r3, #32]
  
  return status; 
 8000f18:	7bfb      	ldrb	r3, [r7, #15]
}
 8000f1a:	4618      	mov	r0, r3
 8000f1c:	3714      	adds	r7, #20
 8000f1e:	46bd      	mov	sp, r7
 8000f20:	bc80      	pop	{r7}
 8000f22:	4770      	bx	lr

08000f24 <HAL_DMA_Abort_IT>:
  * @param  hdma  : pointer to a DMA_HandleTypeDef structure that contains
  *                 the configuration information for the specified DMA Channel.
  * @retval HAL status
  */
HAL_StatusTypeDef HAL_DMA_Abort_IT(DMA_HandleTypeDef *hdma)
{  
 8000f24:	b580      	push	{r7, lr}
 8000f26:	b084      	sub	sp, #16
 8000f28:	af00      	add	r7, sp, #0
 8000f2a:	6078      	str	r0, [r7, #4]
  HAL_StatusTypeDef status = HAL_OK;
 8000f2c:	2300      	movs	r3, #0
 8000f2e:	73fb      	strb	r3, [r7, #15]
  
  if(HAL_DMA_STATE_BUSY != hdma->State)
 8000f30:	687b      	ldr	r3, [r7, #4]
 8000f32:	f893 3021 	ldrb.w	r3, [r3, #33]	; 0x21
 8000f36:	b2db      	uxtb	r3, r3
 8000f38:	2b02      	cmp	r3, #2
 8000f3a:	d005      	beq.n	8000f48 <HAL_DMA_Abort_IT+0x24>
  {
    /* no transfer ongoing */
    hdma->ErrorCode = HAL_DMA_ERROR_NO_XFER;
 8000f3c:	687b      	ldr	r3, [r7, #4]
 8000f3e:	2204      	movs	r2, #4
 8000f40:	639a      	str	r2, [r3, #56]	; 0x38
        
    status = HAL_ERROR;
 8000f42:	2301      	movs	r3, #1
 8000f44:	73fb      	strb	r3, [r7, #15]
 8000f46:	e051      	b.n	8000fec <HAL_DMA_Abort_IT+0xc8>
  }
  else
  { 
    /* Disable DMA IT */
    __HAL_DMA_DISABLE_IT(hdma, (DMA_IT_TC | DMA_IT_HT | DMA_IT_TE));
 8000f48:	687b      	ldr	r3, [r7, #4]
 8000f4a:	681b      	ldr	r3, [r3, #0]
 8000f4c:	681a      	ldr	r2, [r3, #0]
 8000f4e:	687b      	ldr	r3, [r7, #4]
 8000f50:	681b      	ldr	r3, [r3, #0]
 8000f52:	f022 020e 	bic.w	r2, r2, #14
 8000f56:	601a      	str	r2, [r3, #0]

    /* Disable the channel */
    __HAL_DMA_DISABLE(hdma);
 8000f58:	687b      	ldr	r3, [r7, #4]
 8000f5a:	681b      	ldr	r3, [r3, #0]
 8000f5c:	681a      	ldr	r2, [r3, #0]
 8000f5e:	687b      	ldr	r3, [r7, #4]
 8000f60:	681b      	ldr	r3, [r3, #0]
 8000f62:	f022 0201 	bic.w	r2, r2, #1
 8000f66:	601a      	str	r2, [r3, #0]

    /* Clear all flags */
    __HAL_DMA_CLEAR_FLAG(hdma, __HAL_DMA_GET_GI_FLAG_INDEX(hdma));
 8000f68:	687b      	ldr	r3, [r7, #4]
 8000f6a:	681b      	ldr	r3, [r3, #0]
 8000f6c:	4a22      	ldr	r2, [pc, #136]	; (8000ff8 <HAL_DMA_Abort_IT+0xd4>)
 8000f6e:	4293      	cmp	r3, r2
 8000f70:	d029      	beq.n	8000fc6 <HAL_DMA_Abort_IT+0xa2>
 8000f72:	687b      	ldr	r3, [r7, #4]
 8000f74:	681b      	ldr	r3, [r3, #0]
 8000f76:	4a21      	ldr	r2, [pc, #132]	; (8000ffc <HAL_DMA_Abort_IT+0xd8>)
 8000f78:	4293      	cmp	r3, r2
 8000f7a:	d022      	beq.n	8000fc2 <HAL_DMA_Abort_IT+0x9e>
 8000f7c:	687b      	ldr	r3, [r7, #4]
 8000f7e:	681b      	ldr	r3, [r3, #0]
 8000f80:	4a1f      	ldr	r2, [pc, #124]	; (8001000 <HAL_DMA_Abort_IT+0xdc>)
 8000f82:	4293      	cmp	r3, r2
 8000f84:	d01a      	beq.n	8000fbc <HAL_DMA_Abort_IT+0x98>
 8000f86:	687b      	ldr	r3, [r7, #4]
 8000f88:	681b      	ldr	r3, [r3, #0]
 8000f8a:	4a1e      	ldr	r2, [pc, #120]	; (8001004 <HAL_DMA_Abort_IT+0xe0>)
 8000f8c:	4293      	cmp	r3, r2
 8000f8e:	d012      	beq.n	8000fb6 <HAL_DMA_Abort_IT+0x92>
 8000f90:	687b      	ldr	r3, [r7, #4]
 8000f92:	681b      	ldr	r3, [r3, #0]
 8000f94:	4a1c      	ldr	r2, [pc, #112]	; (8001008 <HAL_DMA_Abort_IT+0xe4>)
 8000f96:	4293      	cmp	r3, r2
 8000f98:	d00a      	beq.n	8000fb0 <HAL_DMA_Abort_IT+0x8c>
 8000f9a:	687b      	ldr	r3, [r7, #4]
 8000f9c:	681b      	ldr	r3, [r3, #0]
 8000f9e:	4a1b      	ldr	r2, [pc, #108]	; (800100c <HAL_DMA_Abort_IT+0xe8>)
 8000fa0:	4293      	cmp	r3, r2
 8000fa2:	d102      	bne.n	8000faa <HAL_DMA_Abort_IT+0x86>
 8000fa4:	f44f 1380 	mov.w	r3, #1048576	; 0x100000
 8000fa8:	e00e      	b.n	8000fc8 <HAL_DMA_Abort_IT+0xa4>
 8000faa:	f04f 7380 	mov.w	r3, #16777216	; 0x1000000
 8000fae:	e00b      	b.n	8000fc8 <HAL_DMA_Abort_IT+0xa4>
 8000fb0:	f44f 3380 	mov.w	r3, #65536	; 0x10000
 8000fb4:	e008      	b.n	8000fc8 <HAL_DMA_Abort_IT+0xa4>
 8000fb6:	f44f 5380 	mov.w	r3, #4096	; 0x1000
 8000fba:	e005      	b.n	8000fc8 <HAL_DMA_Abort_IT+0xa4>
 8000fbc:	f44f 7380 	mov.w	r3, #256	; 0x100
 8000fc0:	e002      	b.n	8000fc8 <HAL_DMA_Abort_IT+0xa4>
 8000fc2:	2310      	movs	r3, #16
 8000fc4:	e000      	b.n	8000fc8 <HAL_DMA_Abort_IT+0xa4>
 8000fc6:	2301      	movs	r3, #1
 8000fc8:	4a11      	ldr	r2, [pc, #68]	; (8001010 <HAL_DMA_Abort_IT+0xec>)
 8000fca:	6053      	str	r3, [r2, #4]

    /* Change the DMA state */
    hdma->State = HAL_DMA_STATE_READY;
 8000fcc:	687b      	ldr	r3, [r7, #4]
 8000fce:	2201      	movs	r2, #1
 8000fd0:	f883 2021 	strb.w	r2, [r3, #33]	; 0x21

    /* Process Unlocked */
    __HAL_UNLOCK(hdma);
 8000fd4:	687b      	ldr	r3, [r7, #4]
 8000fd6:	2200      	movs	r2, #0
 8000fd8:	f883 2020 	strb.w	r2, [r3, #32]

    /* Call User Abort callback */
    if(hdma->XferAbortCallback != NULL)
 8000fdc:	687b      	ldr	r3, [r7, #4]
 8000fde:	6b5b      	ldr	r3, [r3, #52]	; 0x34
 8000fe0:	2b00      	cmp	r3, #0
 8000fe2:	d003      	beq.n	8000fec <HAL_DMA_Abort_IT+0xc8>
    {
      hdma->XferAbortCallback(hdma);
 8000fe4:	687b      	ldr	r3, [r7, #4]
 8000fe6:	6b5b      	ldr	r3, [r3, #52]	; 0x34
 8000fe8:	6878      	ldr	r0, [r7, #4]
 8000fea:	4798      	blx	r3
    } 
  }
  return status;
 8000fec:	7bfb      	ldrb	r3, [r7, #15]
}
 8000fee:	4618      	mov	r0, r3
 8000ff0:	3710      	adds	r7, #16
 8000ff2:	46bd      	mov	sp, r7
 8000ff4:	bd80      	pop	{r7, pc}
 8000ff6:	bf00      	nop
 8000ff8:	40020008 	.word	0x40020008
 8000ffc:	4002001c 	.word	0x4002001c
 8001000:	40020030 	.word	0x40020030
 8001004:	40020044 	.word	0x40020044
 8001008:	40020058 	.word	0x40020058
 800100c:	4002006c 	.word	0x4002006c
 8001010:	40020000 	.word	0x40020000

08001014 <HAL_GPIO_Init>:
  * @param  GPIO_Init: pointer to a GPIO_InitTypeDef structure that contains
  *         the configuration information for the specified GPIO peripheral.
  * @retval None
  */
void HAL_GPIO_Init(GPIO_TypeDef  *GPIOx, GPIO_InitTypeDef *GPIO_Init)
{
 8001014:	b480      	push	{r7}
 8001016:	b08b      	sub	sp, #44	; 0x2c
 8001018:	af00      	add	r7, sp, #0
 800101a:	6078      	str	r0, [r7, #4]
 800101c:	6039      	str	r1, [r7, #0]
  uint32_t position = 0x00u;
 800101e:	2300      	movs	r3, #0
 8001020:	627b      	str	r3, [r7, #36]	; 0x24
  uint32_t ioposition;
  uint32_t iocurrent;
  uint32_t temp;
  uint32_t config = 0x00u;
 8001022:	2300      	movs	r3, #0
 8001024:	623b      	str	r3, [r7, #32]
  assert_param(IS_GPIO_ALL_INSTANCE(GPIOx));
  assert_param(IS_GPIO_PIN(GPIO_Init->Pin));
  assert_param(IS_GPIO_MODE(GPIO_Init->Mode));

  /* Configure the port pins */
  while (((GPIO_Init->Pin) >> position) != 0x00u)
 8001026:	e161      	b.n	80012ec <HAL_GPIO_Init+0x2d8>
  {
    /* Get the IO position */
    ioposition = (0x01uL << position);
 8001028:	2201      	movs	r2, #1
 800102a:	6a7b      	ldr	r3, [r7, #36]	; 0x24
 800102c:	fa02 f303 	lsl.w	r3, r2, r3
 8001030:	61fb      	str	r3, [r7, #28]

    /* Get the current IO position */
    iocurrent = (uint32_t)(GPIO_Init->Pin) & ioposition;
 8001032:	683b      	ldr	r3, [r7, #0]
 8001034:	681b      	ldr	r3, [r3, #0]
 8001036:	69fa      	ldr	r2, [r7, #28]
 8001038:	4013      	ands	r3, r2
 800103a:	61bb      	str	r3, [r7, #24]

    if (iocurrent == ioposition)
 800103c:	69ba      	ldr	r2, [r7, #24]
 800103e:	69fb      	ldr	r3, [r7, #28]
 8001040:	429a      	cmp	r2, r3
 8001042:	f040 8150 	bne.w	80012e6 <HAL_GPIO_Init+0x2d2>
    {
      /* Check the Alternate function parameters */
      assert_param(IS_GPIO_AF_INSTANCE(GPIOx));

      /* Based on the required mode, filling config variable with MODEy[1:0] and CNFy[3:2] corresponding bits */
      switch (GPIO_Init->Mode)
 8001046:	683b      	ldr	r3, [r7, #0]
 8001048:	685b      	ldr	r3, [r3, #4]
 800104a:	4a97      	ldr	r2, [pc, #604]	; (80012a8 <HAL_GPIO_Init+0x294>)
 800104c:	4293      	cmp	r3, r2
 800104e:	d05e      	beq.n	800110e <HAL_GPIO_Init+0xfa>
 8001050:	4a95      	ldr	r2, [pc, #596]	; (80012a8 <HAL_GPIO_Init+0x294>)
 8001052:	4293      	cmp	r3, r2
 8001054:	d875      	bhi.n	8001142 <HAL_GPIO_Init+0x12e>
 8001056:	4a95      	ldr	r2, [pc, #596]	; (80012ac <HAL_GPIO_Init+0x298>)
 8001058:	4293      	cmp	r3, r2
 800105a:	d058      	beq.n	800110e <HAL_GPIO_Init+0xfa>
 800105c:	4a93      	ldr	r2, [pc, #588]	; (80012ac <HAL_GPIO_Init+0x298>)
 800105e:	4293      	cmp	r3, r2
 8001060:	d86f      	bhi.n	8001142 <HAL_GPIO_Init+0x12e>
 8001062:	4a93      	ldr	r2, [pc, #588]	; (80012b0 <HAL_GPIO_Init+0x29c>)
 8001064:	4293      	cmp	r3, r2
 8001066:	d052      	beq.n	800110e <HAL_GPIO_Init+0xfa>
 8001068:	4a91      	ldr	r2, [pc, #580]	; (80012b0 <HAL_GPIO_Init+0x29c>)
 800106a:	4293      	cmp	r3, r2
 800106c:	d869      	bhi.n	8001142 <HAL_GPIO_Init+0x12e>
 800106e:	4a91      	ldr	r2, [pc, #580]	; (80012b4 <HAL_GPIO_Init+0x2a0>)
 8001070:	4293      	cmp	r3, r2
 8001072:	d04c      	beq.n	800110e <HAL_GPIO_Init+0xfa>
 8001074:	4a8f      	ldr	r2, [pc, #572]	; (80012b4 <HAL_GPIO_Init+0x2a0>)
 8001076:	4293      	cmp	r3, r2
 8001078:	d863      	bhi.n	8001142 <HAL_GPIO_Init+0x12e>
 800107a:	4a8f      	ldr	r2, [pc, #572]	; (80012b8 <HAL_GPIO_Init+0x2a4>)
 800107c:	4293      	cmp	r3, r2
 800107e:	d046      	beq.n	800110e <HAL_GPIO_Init+0xfa>
 8001080:	4a8d      	ldr	r2, [pc, #564]	; (80012b8 <HAL_GPIO_Init+0x2a4>)
 8001082:	4293      	cmp	r3, r2
 8001084:	d85d      	bhi.n	8001142 <HAL_GPIO_Init+0x12e>
 8001086:	2b12      	cmp	r3, #18
 8001088:	d82a      	bhi.n	80010e0 <HAL_GPIO_Init+0xcc>
 800108a:	2b12      	cmp	r3, #18
 800108c:	d859      	bhi.n	8001142 <HAL_GPIO_Init+0x12e>
 800108e:	a201      	add	r2, pc, #4	; (adr r2, 8001094 <HAL_GPIO_Init+0x80>)
 8001090:	f852 f023 	ldr.w	pc, [r2, r3, lsl #2]
 8001094:	0800110f 	.word	0x0800110f
 8001098:	080010e9 	.word	0x080010e9
 800109c:	080010fb 	.word	0x080010fb
 80010a0:	0800113d 	.word	0x0800113d
 80010a4:	08001143 	.word	0x08001143
 80010a8:	08001143 	.word	0x08001143
 80010ac:	08001143 	.word	0x08001143
 80010b0:	08001143 	.word	0x08001143
 80010b4:	08001143 	.word	0x08001143
 80010b8:	08001143 	.word	0x08001143
 80010bc:	08001143 	.word	0x08001143
 80010c0:	08001143 	.word	0x08001143
 80010c4:	08001143 	.word	0x08001143
 80010c8:	08001143 	.word	0x08001143
 80010cc:	08001143 	.word	0x08001143
 80010d0:	08001143 	.word	0x08001143
 80010d4:	08001143 	.word	0x08001143
 80010d8:	080010f1 	.word	0x080010f1
 80010dc:	08001105 	.word	0x08001105
 80010e0:	4a76      	ldr	r2, [pc, #472]	; (80012bc <HAL_GPIO_Init+0x2a8>)
 80010e2:	4293      	cmp	r3, r2
 80010e4:	d013      	beq.n	800110e <HAL_GPIO_Init+0xfa>
          config = GPIO_CR_MODE_INPUT + GPIO_CR_CNF_ANALOG;
          break;

        /* Parameters are checked with assert_param */
        default:
          break;
 80010e6:	e02c      	b.n	8001142 <HAL_GPIO_Init+0x12e>
          config = GPIO_Init->Speed + GPIO_CR_CNF_GP_OUTPUT_PP;
 80010e8:	683b      	ldr	r3, [r7, #0]
 80010ea:	68db      	ldr	r3, [r3, #12]
 80010ec:	623b      	str	r3, [r7, #32]
          break;
 80010ee:	e029      	b.n	8001144 <HAL_GPIO_Init+0x130>
          config = GPIO_Init->Speed + GPIO_CR_CNF_GP_OUTPUT_OD;
 80010f0:	683b      	ldr	r3, [r7, #0]
 80010f2:	68db      	ldr	r3, [r3, #12]
 80010f4:	3304      	adds	r3, #4
 80010f6:	623b      	str	r3, [r7, #32]
          break;
 80010f8:	e024      	b.n	8001144 <HAL_GPIO_Init+0x130>
          config = GPIO_Init->Speed + GPIO_CR_CNF_AF_OUTPUT_PP;
 80010fa:	683b      	ldr	r3, [r7, #0]
 80010fc:	68db      	ldr	r3, [r3, #12]
 80010fe:	3308      	adds	r3, #8
 8001100:	623b      	str	r3, [r7, #32]
          break;
 8001102:	e01f      	b.n	8001144 <HAL_GPIO_Init+0x130>
          config = GPIO_Init->Speed + GPIO_CR_CNF_AF_OUTPUT_OD;
 8001104:	683b      	ldr	r3, [r7, #0]
 8001106:	68db      	ldr	r3, [r3, #12]
 8001108:	330c      	adds	r3, #12
 800110a:	623b      	str	r3, [r7, #32]
          break;
 800110c:	e01a      	b.n	8001144 <HAL_GPIO_Init+0x130>
          if (GPIO_Init->Pull == GPIO_NOPULL)
 800110e:	683b      	ldr	r3, [r7, #0]
 8001110:	689b      	ldr	r3, [r3, #8]
 8001112:	2b00      	cmp	r3, #0
 8001114:	d102      	bne.n	800111c <HAL_GPIO_Init+0x108>
            config = GPIO_CR_MODE_INPUT + GPIO_CR_CNF_INPUT_FLOATING;
 8001116:	2304      	movs	r3, #4
 8001118:	623b      	str	r3, [r7, #32]
          break;
 800111a:	e013      	b.n	8001144 <HAL_GPIO_Init+0x130>
          else if (GPIO_Init->Pull == GPIO_PULLUP)
 800111c:	683b      	ldr	r3, [r7, #0]
 800111e:	689b      	ldr	r3, [r3, #8]
 8001120:	2b01      	cmp	r3, #1
 8001122:	d105      	bne.n	8001130 <HAL_GPIO_Init+0x11c>
            config = GPIO_CR_MODE_INPUT + GPIO_CR_CNF_INPUT_PU_PD;
 8001124:	2308      	movs	r3, #8
 8001126:	623b      	str	r3, [r7, #32]
            GPIOx->BSRR = ioposition;
 8001128:	687b      	ldr	r3, [r7, #4]
 800112a:	69fa      	ldr	r2, [r7, #28]
 800112c:	611a      	str	r2, [r3, #16]
          break;
 800112e:	e009      	b.n	8001144 <HAL_GPIO_Init+0x130>
            config = GPIO_CR_MODE_INPUT + GPIO_CR_CNF_INPUT_PU_PD;
 8001130:	2308      	movs	r3, #8
 8001132:	623b      	str	r3, [r7, #32]
            GPIOx->BRR = ioposition;
 8001134:	687b      	ldr	r3, [r7, #4]
 8001136:	69fa      	ldr	r2, [r7, #28]
 8001138:	615a      	str	r2, [r3, #20]
          break;
 800113a:	e003      	b.n	8001144 <HAL_GPIO_Init+0x130>
          config = GPIO_CR_MODE_INPUT + GPIO_CR_CNF_ANALOG;
 800113c:	2300      	movs	r3, #0
 800113e:	623b      	str	r3, [r7, #32]
          break;
 8001140:	e000      	b.n	8001144 <HAL_GPIO_Init+0x130>
          break;
 8001142:	bf00      	nop
      }

      /* Check if the current bit belongs to first half or last half of the pin count number
       in order to address CRH or CRL register*/
      configregister = (iocurrent < GPIO_PIN_8) ? &GPIOx->CRL     : &GPIOx->CRH;
 8001144:	69bb      	ldr	r3, [r7, #24]
 8001146:	2bff      	cmp	r3, #255	; 0xff
 8001148:	d801      	bhi.n	800114e <HAL_GPIO_Init+0x13a>
 800114a:	687b      	ldr	r3, [r7, #4]
 800114c:	e001      	b.n	8001152 <HAL_GPIO_Init+0x13e>
 800114e:	687b      	ldr	r3, [r7, #4]
 8001150:	3304      	adds	r3, #4
 8001152:	617b      	str	r3, [r7, #20]
      registeroffset = (iocurrent < GPIO_PIN_8) ? (position << 2u) : ((position - 8u) << 2u);
 8001154:	69bb      	ldr	r3, [r7, #24]
 8001156:	2bff      	cmp	r3, #255	; 0xff
 8001158:	d802      	bhi.n	8001160 <HAL_GPIO_Init+0x14c>
 800115a:	6a7b      	ldr	r3, [r7, #36]	; 0x24
 800115c:	009b      	lsls	r3, r3, #2
 800115e:	e002      	b.n	8001166 <HAL_GPIO_Init+0x152>
 8001160:	6a7b      	ldr	r3, [r7, #36]	; 0x24
 8001162:	3b08      	subs	r3, #8
 8001164:	009b      	lsls	r3, r3, #2
 8001166:	613b      	str	r3, [r7, #16]

      /* Apply the new configuration of the pin to the register */
      MODIFY_REG((*configregister), ((GPIO_CRL_MODE0 | GPIO_CRL_CNF0) << registeroffset), (config << registeroffset));
 8001168:	697b      	ldr	r3, [r7, #20]
 800116a:	681a      	ldr	r2, [r3, #0]
 800116c:	210f      	movs	r1, #15
 800116e:	693b      	ldr	r3, [r7, #16]
 8001170:	fa01 f303 	lsl.w	r3, r1, r3
 8001174:	43db      	mvns	r3, r3
 8001176:	401a      	ands	r2, r3
 8001178:	6a39      	ldr	r1, [r7, #32]
 800117a:	693b      	ldr	r3, [r7, #16]
 800117c:	fa01 f303 	lsl.w	r3, r1, r3
 8001180:	431a      	orrs	r2, r3
 8001182:	697b      	ldr	r3, [r7, #20]
 8001184:	601a      	str	r2, [r3, #0]

      /*--------------------- EXTI Mode Configuration ------------------------*/
      /* Configure the External Interrupt or event for the current IO */
      if ((GPIO_Init->Mode & EXTI_MODE) == EXTI_MODE)
 8001186:	683b      	ldr	r3, [r7, #0]
 8001188:	685b      	ldr	r3, [r3, #4]
 800118a:	f003 5380 	and.w	r3, r3, #268435456	; 0x10000000
 800118e:	2b00      	cmp	r3, #0
 8001190:	f000 80a9 	beq.w	80012e6 <HAL_GPIO_Init+0x2d2>
      {
        /* Enable AFIO Clock */
        __HAL_RCC_AFIO_CLK_ENABLE();
 8001194:	4b4a      	ldr	r3, [pc, #296]	; (80012c0 <HAL_GPIO_Init+0x2ac>)
 8001196:	699b      	ldr	r3, [r3, #24]
 8001198:	4a49      	ldr	r2, [pc, #292]	; (80012c0 <HAL_GPIO_Init+0x2ac>)
 800119a:	f043 0301 	orr.w	r3, r3, #1
 800119e:	6193      	str	r3, [r2, #24]
 80011a0:	4b47      	ldr	r3, [pc, #284]	; (80012c0 <HAL_GPIO_Init+0x2ac>)
 80011a2:	699b      	ldr	r3, [r3, #24]
 80011a4:	f003 0301 	and.w	r3, r3, #1
 80011a8:	60bb      	str	r3, [r7, #8]
 80011aa:	68bb      	ldr	r3, [r7, #8]
        temp = AFIO->EXTICR[position >> 2u];
 80011ac:	4a45      	ldr	r2, [pc, #276]	; (80012c4 <HAL_GPIO_Init+0x2b0>)
 80011ae:	6a7b      	ldr	r3, [r7, #36]	; 0x24
 80011b0:	089b      	lsrs	r3, r3, #2
 80011b2:	3302      	adds	r3, #2
 80011b4:	f852 3023 	ldr.w	r3, [r2, r3, lsl #2]
 80011b8:	60fb      	str	r3, [r7, #12]
        CLEAR_BIT(temp, (0x0Fu) << (4u * (position & 0x03u)));
 80011ba:	6a7b      	ldr	r3, [r7, #36]	; 0x24
 80011bc:	f003 0303 	and.w	r3, r3, #3
 80011c0:	009b      	lsls	r3, r3, #2
 80011c2:	220f      	movs	r2, #15
 80011c4:	fa02 f303 	lsl.w	r3, r2, r3
 80011c8:	43db      	mvns	r3, r3
 80011ca:	68fa      	ldr	r2, [r7, #12]
 80011cc:	4013      	ands	r3, r2
 80011ce:	60fb      	str	r3, [r7, #12]
        SET_BIT(temp, (GPIO_GET_INDEX(GPIOx)) << (4u * (position & 0x03u)));
 80011d0:	687b      	ldr	r3, [r7, #4]
 80011d2:	4a3d      	ldr	r2, [pc, #244]	; (80012c8 <HAL_GPIO_Init+0x2b4>)
 80011d4:	4293      	cmp	r3, r2
 80011d6:	d00d      	beq.n	80011f4 <HAL_GPIO_Init+0x1e0>
 80011d8:	687b      	ldr	r3, [r7, #4]
 80011da:	4a3c      	ldr	r2, [pc, #240]	; (80012cc <HAL_GPIO_Init+0x2b8>)
 80011dc:	4293      	cmp	r3, r2
 80011de:	d007      	beq.n	80011f0 <HAL_GPIO_Init+0x1dc>
 80011e0:	687b      	ldr	r3, [r7, #4]
 80011e2:	4a3b      	ldr	r2, [pc, #236]	; (80012d0 <HAL_GPIO_Init+0x2bc>)
 80011e4:	4293      	cmp	r3, r2
 80011e6:	d101      	bne.n	80011ec <HAL_GPIO_Init+0x1d8>
 80011e8:	2302      	movs	r3, #2
 80011ea:	e004      	b.n	80011f6 <HAL_GPIO_Init+0x1e2>
 80011ec:	2303      	movs	r3, #3
 80011ee:	e002      	b.n	80011f6 <HAL_GPIO_Init+0x1e2>
 80011f0:	2301      	movs	r3, #1
 80011f2:	e000      	b.n	80011f6 <HAL_GPIO_Init+0x1e2>
 80011f4:	2300      	movs	r3, #0
 80011f6:	6a7a      	ldr	r2, [r7, #36]	; 0x24
 80011f8:	f002 0203 	and.w	r2, r2, #3
 80011fc:	0092      	lsls	r2, r2, #2
 80011fe:	4093      	lsls	r3, r2
 8001200:	68fa      	ldr	r2, [r7, #12]
 8001202:	4313      	orrs	r3, r2
 8001204:	60fb      	str	r3, [r7, #12]
        AFIO->EXTICR[position >> 2u] = temp;
 8001206:	492f      	ldr	r1, [pc, #188]	; (80012c4 <HAL_GPIO_Init+0x2b0>)
 8001208:	6a7b      	ldr	r3, [r7, #36]	; 0x24
 800120a:	089b      	lsrs	r3, r3, #2
 800120c:	3302      	adds	r3, #2
 800120e:	68fa      	ldr	r2, [r7, #12]
 8001210:	f841 2023 	str.w	r2, [r1, r3, lsl #2]


        /* Enable or disable the rising trigger */
        if ((GPIO_Init->Mode & RISING_EDGE) == RISING_EDGE)
 8001214:	683b      	ldr	r3, [r7, #0]
 8001216:	685b      	ldr	r3, [r3, #4]
 8001218:	f403 1380 	and.w	r3, r3, #1048576	; 0x100000
 800121c:	2b00      	cmp	r3, #0
 800121e:	d006      	beq.n	800122e <HAL_GPIO_Init+0x21a>
        {
          SET_BIT(EXTI->RTSR, iocurrent);
 8001220:	4b2c      	ldr	r3, [pc, #176]	; (80012d4 <HAL_GPIO_Init+0x2c0>)
 8001222:	689a      	ldr	r2, [r3, #8]
 8001224:	492b      	ldr	r1, [pc, #172]	; (80012d4 <HAL_GPIO_Init+0x2c0>)
 8001226:	69bb      	ldr	r3, [r7, #24]
 8001228:	4313      	orrs	r3, r2
 800122a:	608b      	str	r3, [r1, #8]
 800122c:	e006      	b.n	800123c <HAL_GPIO_Init+0x228>
        }
        else
        {
          CLEAR_BIT(EXTI->RTSR, iocurrent);
 800122e:	4b29      	ldr	r3, [pc, #164]	; (80012d4 <HAL_GPIO_Init+0x2c0>)
 8001230:	689a      	ldr	r2, [r3, #8]
 8001232:	69bb      	ldr	r3, [r7, #24]
 8001234:	43db      	mvns	r3, r3
 8001236:	4927      	ldr	r1, [pc, #156]	; (80012d4 <HAL_GPIO_Init+0x2c0>)
 8001238:	4013      	ands	r3, r2
 800123a:	608b      	str	r3, [r1, #8]
        }

        /* Enable or disable the falling trigger */
        if ((GPIO_Init->Mode & FALLING_EDGE) == FALLING_EDGE)
 800123c:	683b      	ldr	r3, [r7, #0]
 800123e:	685b      	ldr	r3, [r3, #4]
 8001240:	f403 1300 	and.w	r3, r3, #2097152	; 0x200000
 8001244:	2b00      	cmp	r3, #0
 8001246:	d006      	beq.n	8001256 <HAL_GPIO_Init+0x242>
        {
          SET_BIT(EXTI->FTSR, iocurrent);
 8001248:	4b22      	ldr	r3, [pc, #136]	; (80012d4 <HAL_GPIO_Init+0x2c0>)
 800124a:	68da      	ldr	r2, [r3, #12]
 800124c:	4921      	ldr	r1, [pc, #132]	; (80012d4 <HAL_GPIO_Init+0x2c0>)
 800124e:	69bb      	ldr	r3, [r7, #24]
 8001250:	4313      	orrs	r3, r2
 8001252:	60cb      	str	r3, [r1, #12]
 8001254:	e006      	b.n	8001264 <HAL_GPIO_Init+0x250>
        }
        else
        {
          CLEAR_BIT(EXTI->FTSR, iocurrent);
 8001256:	4b1f      	ldr	r3, [pc, #124]	; (80012d4 <HAL_GPIO_Init+0x2c0>)
 8001258:	68da      	ldr	r2, [r3, #12]
 800125a:	69bb      	ldr	r3, [r7, #24]
 800125c:	43db      	mvns	r3, r3
 800125e:	491d      	ldr	r1, [pc, #116]	; (80012d4 <HAL_GPIO_Init+0x2c0>)
 8001260:	4013      	ands	r3, r2
 8001262:	60cb      	str	r3, [r1, #12]
        }

        /* Configure the event mask */
        if ((GPIO_Init->Mode & GPIO_MODE_EVT) == GPIO_MODE_EVT)
 8001264:	683b      	ldr	r3, [r7, #0]
 8001266:	685b      	ldr	r3, [r3, #4]
 8001268:	f403 3300 	and.w	r3, r3, #131072	; 0x20000
 800126c:	2b00      	cmp	r3, #0
 800126e:	d006      	beq.n	800127e <HAL_GPIO_Init+0x26a>
        {
          SET_BIT(EXTI->EMR, iocurrent);
 8001270:	4b18      	ldr	r3, [pc, #96]	; (80012d4 <HAL_GPIO_Init+0x2c0>)
 8001272:	685a      	ldr	r2, [r3, #4]
 8001274:	4917      	ldr	r1, [pc, #92]	; (80012d4 <HAL_GPIO_Init+0x2c0>)
 8001276:	69bb      	ldr	r3, [r7, #24]
 8001278:	4313      	orrs	r3, r2
 800127a:	604b      	str	r3, [r1, #4]
 800127c:	e006      	b.n	800128c <HAL_GPIO_Init+0x278>
        }
        else
        {
          CLEAR_BIT(EXTI->EMR, iocurrent);
 800127e:	4b15      	ldr	r3, [pc, #84]	; (80012d4 <HAL_GPIO_Init+0x2c0>)
 8001280:	685a      	ldr	r2, [r3, #4]
 8001282:	69bb      	ldr	r3, [r7, #24]
 8001284:	43db      	mvns	r3, r3
 8001286:	4913      	ldr	r1, [pc, #76]	; (80012d4 <HAL_GPIO_Init+0x2c0>)
 8001288:	4013      	ands	r3, r2
 800128a:	604b      	str	r3, [r1, #4]
        }

        /* Configure the interrupt mask */
        if ((GPIO_Init->Mode & GPIO_MODE_IT) == GPIO_MODE_IT)
 800128c:	683b      	ldr	r3, [r7, #0]
 800128e:	685b      	ldr	r3, [r3, #4]
 8001290:	f403 3380 	and.w	r3, r3, #65536	; 0x10000
 8001294:	2b00      	cmp	r3, #0
 8001296:	d01f      	beq.n	80012d8 <HAL_GPIO_Init+0x2c4>
        {
          SET_BIT(EXTI->IMR, iocurrent);
 8001298:	4b0e      	ldr	r3, [pc, #56]	; (80012d4 <HAL_GPIO_Init+0x2c0>)
 800129a:	681a      	ldr	r2, [r3, #0]
 800129c:	490d      	ldr	r1, [pc, #52]	; (80012d4 <HAL_GPIO_Init+0x2c0>)
 800129e:	69bb      	ldr	r3, [r7, #24]
 80012a0:	4313      	orrs	r3, r2
 80012a2:	600b      	str	r3, [r1, #0]
 80012a4:	e01f      	b.n	80012e6 <HAL_GPIO_Init+0x2d2>
 80012a6:	bf00      	nop
 80012a8:	10320000 	.word	0x10320000
 80012ac:	10310000 	.word	0x10310000
 80012b0:	10220000 	.word	0x10220000
 80012b4:	10210000 	.word	0x10210000
 80012b8:	10120000 	.word	0x10120000
 80012bc:	10110000 	.word	0x10110000
 80012c0:	40021000 	.word	0x40021000
 80012c4:	40010000 	.word	0x40010000
 80012c8:	40010800 	.word	0x40010800
 80012cc:	40010c00 	.word	0x40010c00
 80012d0:	40011000 	.word	0x40011000
 80012d4:	40010400 	.word	0x40010400
        }
        else
        {
          CLEAR_BIT(EXTI->IMR, iocurrent);
 80012d8:	4b0b      	ldr	r3, [pc, #44]	; (8001308 <HAL_GPIO_Init+0x2f4>)
 80012da:	681a      	ldr	r2, [r3, #0]
 80012dc:	69bb      	ldr	r3, [r7, #24]
 80012de:	43db      	mvns	r3, r3
 80012e0:	4909      	ldr	r1, [pc, #36]	; (8001308 <HAL_GPIO_Init+0x2f4>)
 80012e2:	4013      	ands	r3, r2
 80012e4:	600b      	str	r3, [r1, #0]
        }
      }
    }

	position++;
 80012e6:	6a7b      	ldr	r3, [r7, #36]	; 0x24
 80012e8:	3301      	adds	r3, #1
 80012ea:	627b      	str	r3, [r7, #36]	; 0x24
  while (((GPIO_Init->Pin) >> position) != 0x00u)
 80012ec:	683b      	ldr	r3, [r7, #0]
 80012ee:	681a      	ldr	r2, [r3, #0]
 80012f0:	6a7b      	ldr	r3, [r7, #36]	; 0x24
 80012f2:	fa22 f303 	lsr.w	r3, r2, r3
 80012f6:	2b00      	cmp	r3, #0
 80012f8:	f47f ae96 	bne.w	8001028 <HAL_GPIO_Init+0x14>
  }
}
 80012fc:	bf00      	nop
 80012fe:	bf00      	nop
 8001300:	372c      	adds	r7, #44	; 0x2c
 8001302:	46bd      	mov	sp, r7
 8001304:	bc80      	pop	{r7}
 8001306:	4770      	bx	lr
 8001308:	40010400 	.word	0x40010400

0800130c <HAL_GPIO_WritePin>:
  *            @arg GPIO_PIN_RESET: to clear the port pin
  *            @arg GPIO_PIN_SET: to set the port pin
  * @retval None
  */
void HAL_GPIO_WritePin(GPIO_TypeDef *GPIOx, uint16_t GPIO_Pin, GPIO_PinState PinState)
{
 800130c:	b480      	push	{r7}
 800130e:	b083      	sub	sp, #12
 8001310:	af00      	add	r7, sp, #0
 8001312:	6078      	str	r0, [r7, #4]
 8001314:	460b      	mov	r3, r1
 8001316:	807b      	strh	r3, [r7, #2]
 8001318:	4613      	mov	r3, r2
 800131a:	707b      	strb	r3, [r7, #1]
  /* Check the parameters */
  assert_param(IS_GPIO_PIN(GPIO_Pin));
  assert_param(IS_GPIO_PIN_ACTION(PinState));

  if (PinState != GPIO_PIN_RESET)
 800131c:	787b      	ldrb	r3, [r7, #1]
 800131e:	2b00      	cmp	r3, #0
 8001320:	d003      	beq.n	800132a <HAL_GPIO_WritePin+0x1e>
  {
    GPIOx->BSRR = GPIO_Pin;
 8001322:	887a      	ldrh	r2, [r7, #2]
 8001324:	687b      	ldr	r3, [r7, #4]
 8001326:	611a      	str	r2, [r3, #16]
  }
  else
  {
    GPIOx->BSRR = (uint32_t)GPIO_Pin << 16u;
  }
}
 8001328:	e003      	b.n	8001332 <HAL_GPIO_WritePin+0x26>
    GPIOx->BSRR = (uint32_t)GPIO_Pin << 16u;
 800132a:	887b      	ldrh	r3, [r7, #2]
 800132c:	041a      	lsls	r2, r3, #16
 800132e:	687b      	ldr	r3, [r7, #4]
 8001330:	611a      	str	r2, [r3, #16]
}
 8001332:	bf00      	nop
 8001334:	370c      	adds	r7, #12
 8001336:	46bd      	mov	sp, r7
 8001338:	bc80      	pop	{r7}
 800133a:	4770      	bx	lr

0800133c <HAL_GPIO_TogglePin>:
  * @param  GPIOx: where x can be (A..G depending on device used) to select the GPIO peripheral
  * @param  GPIO_Pin: Specifies the pins to be toggled.
  * @retval None
  */
void HAL_GPIO_TogglePin(GPIO_TypeDef *GPIOx, uint16_t GPIO_Pin)
{
 800133c:	b480      	push	{r7}
 800133e:	b085      	sub	sp, #20
 8001340:	af00      	add	r7, sp, #0
 8001342:	6078      	str	r0, [r7, #4]
 8001344:	460b      	mov	r3, r1
 8001346:	807b      	strh	r3, [r7, #2]

  /* Check the parameters */
  assert_param(IS_GPIO_PIN(GPIO_Pin));

  /* get current Output Data Register value */
  odr = GPIOx->ODR;
 8001348:	687b      	ldr	r3, [r7, #4]
 800134a:	68db      	ldr	r3, [r3, #12]
 800134c:	60fb      	str	r3, [r7, #12]

  /* Set selected pins that were at low level, and reset ones that were high */
  GPIOx->BSRR = ((odr & GPIO_Pin) << GPIO_NUMBER) | (~odr & GPIO_Pin);
 800134e:	887a      	ldrh	r2, [r7, #2]
 8001350:	68fb      	ldr	r3, [r7, #12]
 8001352:	4013      	ands	r3, r2
 8001354:	041a      	lsls	r2, r3, #16
 8001356:	68fb      	ldr	r3, [r7, #12]
 8001358:	43d9      	mvns	r1, r3
 800135a:	887b      	ldrh	r3, [r7, #2]
 800135c:	400b      	ands	r3, r1
 800135e:	431a      	orrs	r2, r3
 8001360:	687b      	ldr	r3, [r7, #4]
 8001362:	611a      	str	r2, [r3, #16]
}
 8001364:	bf00      	nop
 8001366:	3714      	adds	r7, #20
 8001368:	46bd      	mov	sp, r7
 800136a:	bc80      	pop	{r7}
 800136c:	4770      	bx	lr

0800136e <HAL_IWDG_Init>:
  * @param  hiwdg  pointer to a IWDG_HandleTypeDef structure that contains
  *                the configuration information for the specified IWDG module.
  * @retval HAL status
  */
HAL_StatusTypeDef HAL_IWDG_Init(IWDG_HandleTypeDef *hiwdg)
{
 800136e:	b580      	push	{r7, lr}
 8001370:	b084      	sub	sp, #16
 8001372:	af00      	add	r7, sp, #0
 8001374:	6078      	str	r0, [r7, #4]
  uint32_t tickstart;

  /* Check the IWDG handle allocation */
  if (hiwdg == NULL)
 8001376:	687b      	ldr	r3, [r7, #4]
 8001378:	2b00      	cmp	r3, #0
 800137a:	d101      	bne.n	8001380 <HAL_IWDG_Init+0x12>
  {
    return HAL_ERROR;
 800137c:	2301      	movs	r3, #1
 800137e:	e034      	b.n	80013ea <HAL_IWDG_Init+0x7c>
  assert_param(IS_IWDG_ALL_INSTANCE(hiwdg->Instance));
  assert_param(IS_IWDG_PRESCALER(hiwdg->Init.Prescaler));
  assert_param(IS_IWDG_RELOAD(hiwdg->Init.Reload));

  /* Enable IWDG. LSI is turned on automatically */
  __HAL_IWDG_START(hiwdg);
 8001380:	687b      	ldr	r3, [r7, #4]
 8001382:	681b      	ldr	r3, [r3, #0]
 8001384:	f64c 42cc 	movw	r2, #52428	; 0xcccc
 8001388:	601a      	str	r2, [r3, #0]

  /* Enable write access to IWDG_PR and IWDG_RLR registers by writing
  0x5555 in KR */
  IWDG_ENABLE_WRITE_ACCESS(hiwdg);
 800138a:	687b      	ldr	r3, [r7, #4]
 800138c:	681b      	ldr	r3, [r3, #0]
 800138e:	f245 5255 	movw	r2, #21845	; 0x5555
 8001392:	601a      	str	r2, [r3, #0]

  /* Write to IWDG registers the Prescaler & Reload values to work with */
  hiwdg->Instance->PR = hiwdg->Init.Prescaler;
 8001394:	687b      	ldr	r3, [r7, #4]
 8001396:	681b      	ldr	r3, [r3, #0]
 8001398:	687a      	ldr	r2, [r7, #4]
 800139a:	6852      	ldr	r2, [r2, #4]
 800139c:	605a      	str	r2, [r3, #4]
  hiwdg->Instance->RLR = hiwdg->Init.Reload;
 800139e:	687b      	ldr	r3, [r7, #4]
 80013a0:	681b      	ldr	r3, [r3, #0]
 80013a2:	687a      	ldr	r2, [r7, #4]
 80013a4:	6892      	ldr	r2, [r2, #8]
 80013a6:	609a      	str	r2, [r3, #8]

  /* Check pending flag, if previous update not done, return timeout */
  tickstart = HAL_GetTick();
 80013a8:	f7ff fc4e 	bl	8000c48 <HAL_GetTick>
 80013ac:	60f8      	str	r0, [r7, #12]

  /* Wait for register to be updated */
  while ((hiwdg->Instance->SR & IWDG_KERNEL_UPDATE_FLAGS) != 0x00u)
 80013ae:	e00f      	b.n	80013d0 <HAL_IWDG_Init+0x62>
  {
    if ((HAL_GetTick() - tickstart) > HAL_IWDG_DEFAULT_TIMEOUT)
 80013b0:	f7ff fc4a 	bl	8000c48 <HAL_GetTick>
 80013b4:	4602      	mov	r2, r0
 80013b6:	68fb      	ldr	r3, [r7, #12]
 80013b8:	1ad3      	subs	r3, r2, r3
 80013ba:	2b27      	cmp	r3, #39	; 0x27
 80013bc:	d908      	bls.n	80013d0 <HAL_IWDG_Init+0x62>
    {
      if ((hiwdg->Instance->SR & IWDG_KERNEL_UPDATE_FLAGS) != 0x00u)
 80013be:	687b      	ldr	r3, [r7, #4]
 80013c0:	681b      	ldr	r3, [r3, #0]
 80013c2:	68db      	ldr	r3, [r3, #12]
 80013c4:	f003 0303 	and.w	r3, r3, #3
 80013c8:	2b00      	cmp	r3, #0
 80013ca:	d001      	beq.n	80013d0 <HAL_IWDG_Init+0x62>
      {
        return HAL_TIMEOUT;
 80013cc:	2303      	movs	r3, #3
 80013ce:	e00c      	b.n	80013ea <HAL_IWDG_Init+0x7c>
  while ((hiwdg->Instance->SR & IWDG_KERNEL_UPDATE_FLAGS) != 0x00u)
 80013d0:	687b      	ldr	r3, [r7, #4]
 80013d2:	681b      	ldr	r3, [r3, #0]
 80013d4:	68db      	ldr	r3, [r3, #12]
 80013d6:	f003 0303 	and.w	r3, r3, #3
 80013da:	2b00      	cmp	r3, #0
 80013dc:	d1e8      	bne.n	80013b0 <HAL_IWDG_Init+0x42>
      }
    }
  }

  /* Reload IWDG counter with value defined in the reload register */
  __HAL_IWDG_RELOAD_COUNTER(hiwdg);
 80013de:	687b      	ldr	r3, [r7, #4]
 80013e0:	681b      	ldr	r3, [r3, #0]
 80013e2:	f64a 22aa 	movw	r2, #43690	; 0xaaaa
 80013e6:	601a      	str	r2, [r3, #0]

  /* Return function status */
  return HAL_OK;
 80013e8:	2300      	movs	r3, #0
}
 80013ea:	4618      	mov	r0, r3
 80013ec:	3710      	adds	r7, #16
 80013ee:	46bd      	mov	sp, r7
 80013f0:	bd80      	pop	{r7, pc}

080013f2 <HAL_IWDG_Refresh>:
  * @param  hiwdg  pointer to a IWDG_HandleTypeDef structure that contains
  *                the configuration information for the specified IWDG module.
  * @retval HAL status
  */
HAL_StatusTypeDef HAL_IWDG_Refresh(IWDG_HandleTypeDef *hiwdg)
{
 80013f2:	b480      	push	{r7}
 80013f4:	b083      	sub	sp, #12
 80013f6:	af00      	add	r7, sp, #0
 80013f8:	6078      	str	r0, [r7, #4]
  /* Reload IWDG counter with value defined in the reload register */
  __HAL_IWDG_RELOAD_COUNTER(hiwdg);
 80013fa:	687b      	ldr	r3, [r7, #4]
 80013fc:	681b      	ldr	r3, [r3, #0]
 80013fe:	f64a 22aa 	movw	r2, #43690	; 0xaaaa
 8001402:	601a      	str	r2, [r3, #0]

  /* Return function status */
  return HAL_OK;
 8001404:	2300      	movs	r3, #0
}
 8001406:	4618      	mov	r0, r3
 8001408:	370c      	adds	r7, #12
 800140a:	46bd      	mov	sp, r7
 800140c:	bc80      	pop	{r7}
 800140e:	4770      	bx	lr

08001410 <HAL_PWR_EnterSLEEPMode>:
  *            @arg PWR_SLEEPENTRY_WFI: enter SLEEP mode with WFI instruction
  *            @arg PWR_SLEEPENTRY_WFE: enter SLEEP mode with WFE instruction
  * @retval None
  */
void HAL_PWR_EnterSLEEPMode(uint32_t Regulator, uint8_t SLEEPEntry)
{
 8001410:	b480      	push	{r7}
 8001412:	b083      	sub	sp, #12
 8001414:	af00      	add	r7, sp, #0
 8001416:	6078      	str	r0, [r7, #4]
 8001418:	460b      	mov	r3, r1
 800141a:	70fb      	strb	r3, [r7, #3]
  UNUSED(Regulator);

  assert_param(IS_PWR_SLEEP_ENTRY(SLEEPEntry));

  /* Clear SLEEPDEEP bit of Cortex System Control Register */
  CLEAR_BIT(SCB->SCR, ((uint32_t)SCB_SCR_SLEEPDEEP_Msk));
 800141c:	4b09      	ldr	r3, [pc, #36]	; (8001444 <HAL_PWR_EnterSLEEPMode+0x34>)
 800141e:	691b      	ldr	r3, [r3, #16]
 8001420:	4a08      	ldr	r2, [pc, #32]	; (8001444 <HAL_PWR_EnterSLEEPMode+0x34>)
 8001422:	f023 0304 	bic.w	r3, r3, #4
 8001426:	6113      	str	r3, [r2, #16]

  /* Select SLEEP mode entry -------------------------------------------------*/
  if(SLEEPEntry == PWR_SLEEPENTRY_WFI)
 8001428:	78fb      	ldrb	r3, [r7, #3]
 800142a:	2b01      	cmp	r3, #1
 800142c:	d101      	bne.n	8001432 <HAL_PWR_EnterSLEEPMode+0x22>
  {
    /* Request Wait For Interrupt */
    __WFI();
 800142e:	bf30      	wfi
    /* Request Wait For Event */
    __SEV();
    __WFE();
    __WFE();
  }
}
 8001430:	e002      	b.n	8001438 <HAL_PWR_EnterSLEEPMode+0x28>
    __SEV();
 8001432:	bf40      	sev
    __WFE();
 8001434:	bf20      	wfe
    __WFE();
 8001436:	bf20      	wfe
}
 8001438:	bf00      	nop
 800143a:	370c      	adds	r7, #12
 800143c:	46bd      	mov	sp, r7
 800143e:	bc80      	pop	{r7}
 8001440:	4770      	bx	lr
 8001442:	bf00      	nop
 8001444:	e000ed00 	.word	0xe000ed00

08001448 <HAL_RCC_OscConfig>:
  *         supported by this macro. User should request a transition to HSE Off
  *         first and then HSE On or HSE Bypass.
  * @retval HAL status
  */
HAL_StatusTypeDef HAL_RCC_OscConfig(RCC_OscInitTypeDef  *RCC_OscInitStruct)
{
 8001448:	b580      	push	{r7, lr}
 800144a:	b086      	sub	sp, #24
 800144c:	af00      	add	r7, sp, #0
 800144e:	6078      	str	r0, [r7, #4]
  uint32_t tickstart;
  uint32_t pll_config;

  /* Check Null pointer */
  if (RCC_OscInitStruct == NULL)
 8001450:	687b      	ldr	r3, [r7, #4]
 8001452:	2b00      	cmp	r3, #0
 8001454:	d101      	bne.n	800145a <HAL_RCC_OscConfig+0x12>
  {
    return HAL_ERROR;
 8001456:	2301      	movs	r3, #1
 8001458:	e272      	b.n	8001940 <HAL_RCC_OscConfig+0x4f8>

  /* Check the parameters */
  assert_param(IS_RCC_OSCILLATORTYPE(RCC_OscInitStruct->OscillatorType));

  /*------------------------------- HSE Configuration ------------------------*/
  if (((RCC_OscInitStruct->OscillatorType) & RCC_OSCILLATORTYPE_HSE) == RCC_OSCILLATORTYPE_HSE)
 800145a:	687b      	ldr	r3, [r7, #4]
 800145c:	681b      	ldr	r3, [r3, #0]
 800145e:	f003 0301 	and.w	r3, r3, #1
 8001462:	2b00      	cmp	r3, #0
 8001464:	f000 8087 	beq.w	8001576 <HAL_RCC_OscConfig+0x12e>
  {
    /* Check the parameters */
    assert_param(IS_RCC_HSE(RCC_OscInitStruct->HSEState));

    /* When the HSE is used as system clock or clock source for PLL in these cases it is not allowed to be disabled */
    if ((__HAL_RCC_GET_SYSCLK_SOURCE() == RCC_SYSCLKSOURCE_STATUS_HSE)
 8001468:	4b92      	ldr	r3, [pc, #584]	; (80016b4 <HAL_RCC_OscConfig+0x26c>)
 800146a:	685b      	ldr	r3, [r3, #4]
 800146c:	f003 030c 	and.w	r3, r3, #12
 8001470:	2b04      	cmp	r3, #4
 8001472:	d00c      	beq.n	800148e <HAL_RCC_OscConfig+0x46>
        || ((__HAL_RCC_GET_SYSCLK_SOURCE() == RCC_SYSCLKSOURCE_STATUS_PLLCLK) && (__HAL_RCC_GET_PLL_OSCSOURCE() == RCC_PLLSOURCE_HSE)))
 8001474:	4b8f      	ldr	r3, [pc, #572]	; (80016b4 <HAL_RCC_OscConfig+0x26c>)
 8001476:	685b      	ldr	r3, [r3, #4]
 8001478:	f003 030c 	and.w	r3, r3, #12
 800147c:	2b08      	cmp	r3, #8
 800147e:	d112      	bne.n	80014a6 <HAL_RCC_OscConfig+0x5e>
 8001480:	4b8c      	ldr	r3, [pc, #560]	; (80016b4 <HAL_RCC_OscConfig+0x26c>)
 8001482:	685b      	ldr	r3, [r3, #4]
 8001484:	f403 3380 	and.w	r3, r3, #65536	; 0x10000
 8001488:	f5b3 3f80 	cmp.w	r3, #65536	; 0x10000
 800148c:	d10b      	bne.n	80014a6 <HAL_RCC_OscConfig+0x5e>
    {
      if ((__HAL_RCC_GET_FLAG(RCC_FLAG_HSERDY) != RESET) && (RCC_OscInitStruct->HSEState == RCC_HSE_OFF))
 800148e:	4b89      	ldr	r3, [pc, #548]	; (80016b4 <HAL_RCC_OscConfig+0x26c>)
 8001490:	681b      	ldr	r3, [r3, #0]
 8001492:	f403 3300 	and.w	r3, r3, #131072	; 0x20000
 8001496:	2b00      	cmp	r3, #0
 8001498:	d06c      	beq.n	8001574 <HAL_RCC_OscConfig+0x12c>
 800149a:	687b      	ldr	r3, [r7, #4]
 800149c:	685b      	ldr	r3, [r3, #4]
 800149e:	2b00      	cmp	r3, #0
 80014a0:	d168      	bne.n	8001574 <HAL_RCC_OscConfig+0x12c>
      {
        return HAL_ERROR;
 80014a2:	2301      	movs	r3, #1
 80014a4:	e24c      	b.n	8001940 <HAL_RCC_OscConfig+0x4f8>
      }
    }
    else
    {
      /* Set the new HSE configuration ---------------------------------------*/
      __HAL_RCC_HSE_CONFIG(RCC_OscInitStruct->HSEState);
 80014a6:	687b      	ldr	r3, [r7, #4]
 80014a8:	685b      	ldr	r3, [r3, #4]
 80014aa:	f5b3 3f80 	cmp.w	r3, #65536	; 0x10000
 80014ae:	d106      	bne.n	80014be <HAL_RCC_OscConfig+0x76>
 80014b0:	4b80      	ldr	r3, [pc, #512]	; (80016b4 <HAL_RCC_OscConfig+0x26c>)
 80014b2:	681b      	ldr	r3, [r3, #0]
 80014b4:	4a7f      	ldr	r2, [pc, #508]	; (80016b4 <HAL_RCC_OscConfig+0x26c>)
 80014b6:	f443 3380 	orr.w	r3, r3, #65536	; 0x10000
 80014ba:	6013      	str	r3, [r2, #0]
 80014bc:	e02e      	b.n	800151c <HAL_RCC_OscConfig+0xd4>
 80014be:	687b      	ldr	r3, [r7, #4]
 80014c0:	685b      	ldr	r3, [r3, #4]
 80014c2:	2b00      	cmp	r3, #0
 80014c4:	d10c      	bne.n	80014e0 <HAL_RCC_OscConfig+0x98>
 80014c6:	4b7b      	ldr	r3, [pc, #492]	; (80016b4 <HAL_RCC_OscConfig+0x26c>)
 80014c8:	681b      	ldr	r3, [r3, #0]
 80014ca:	4a7a      	ldr	r2, [pc, #488]	; (80016b4 <HAL_RCC_OscConfig+0x26c>)
 80014cc:	f423 3380 	bic.w	r3, r3, #65536	; 0x10000
 80014d0:	6013      	str	r3, [r2, #0]
 80014d2:	4b78      	ldr	r3, [pc, #480]	; (80016b4 <HAL_RCC_OscConfig+0x26c>)
 80014d4:	681b      	ldr	r3, [r3, #0]
 80014d6:	4a77      	ldr	r2, [pc, #476]	; (80016b4 <HAL_RCC_OscConfig+0x26c>)
 80014d8:	f423 2380 	bic.w	r3, r3, #262144	; 0x40000
 80014dc:	6013      	str	r3, [r2, #0]
 80014de:	e01d      	b.n	800151c <HAL_RCC_OscConfig+0xd4>
 80014e0:	687b      	ldr	r3, [r7, #4]
 80014e2:	685b      	ldr	r3, [r3, #4]
 80014e4:	f5b3 2fa0 	cmp.w	r3, #327680	; 0x50000
 80014e8:	d10c      	bne.n	8001504 <HAL_RCC_OscConfig+0xbc>
 80014ea:	4b72      	ldr	r3, [pc, #456]	; (80016b4 <HAL_RCC_OscConfig+0x26c>)
 80014ec:	681b      	ldr	r3, [r3, #0]
 80014ee:	4a71      	ldr	r2, [pc, #452]	; (80016b4 <HAL_RCC_OscConfig+0x26c>)
 80014f0:	f443 2380 	orr.w	r3, r3, #262144	; 0x40000
 80014f4:	6013      	str	r3, [r2, #0]
 80014f6:	4b6f      	ldr	r3, [pc, #444]	; (80016b4 <HAL_RCC_OscConfig+0x26c>)
 80014f8:	681b      	ldr	r3, [r3, #0]
 80014fa:	4a6e      	ldr	r2, [pc, #440]	; (80016b4 <HAL_RCC_OscConfig+0x26c>)
 80014fc:	f443 3380 	orr.w	r3, r3, #65536	; 0x10000
 8001500:	6013      	str	r3, [r2, #0]
 8001502:	e00b      	b.n	800151c <HAL_RCC_OscConfig+0xd4>
 8001504:	4b6b      	ldr	r3, [pc, #428]	; (80016b4 <HAL_RCC_OscConfig+0x26c>)
 8001506:	681b      	ldr	r3, [r3, #0]
 8001508:	4a6a      	ldr	r2, [pc, #424]	; (80016b4 <HAL_RCC_OscConfig+0x26c>)
 800150a:	f423 3380 	bic.w	r3, r3, #65536	; 0x10000
 800150e:	6013      	str	r3, [r2, #0]
 8001510:	4b68      	ldr	r3, [pc, #416]	; (80016b4 <HAL_RCC_OscConfig+0x26c>)
 8001512:	681b      	ldr	r3, [r3, #0]
 8001514:	4a67      	ldr	r2, [pc, #412]	; (80016b4 <HAL_RCC_OscConfig+0x26c>)
 8001516:	f423 2380 	bic.w	r3, r3, #262144	; 0x40000
 800151a:	6013      	str	r3, [r2, #0]


      /* Check the HSE State */
      if (RCC_OscInitStruct->HSEState != RCC_HSE_OFF)
 800151c:	687b      	ldr	r3, [r7, #4]
 800151e:	685b      	ldr	r3, [r3, #4]
 8001520:	2b00      	cmp	r3, #0
 8001522:	d013      	beq.n	800154c <HAL_RCC_OscConfig+0x104>
      {
        /* Get Start Tick */
        tickstart = HAL_GetTick();
 8001524:	f7ff fb90 	bl	8000c48 <HAL_GetTick>
 8001528:	6138      	str	r0, [r7, #16]

        /* Wait till HSE is ready */
        while (__HAL_RCC_GET_FLAG(RCC_FLAG_HSERDY) == RESET)
 800152a:	e008      	b.n	800153e <HAL_RCC_OscConfig+0xf6>
        {
          if ((HAL_GetTick() - tickstart) > HSE_TIMEOUT_VALUE)
 800152c:	f7ff fb8c 	bl	8000c48 <HAL_GetTick>
 8001530:	4602      	mov	r2, r0
 8001532:	693b      	ldr	r3, [r7, #16]
 8001534:	1ad3      	subs	r3, r2, r3
 8001536:	2b64      	cmp	r3, #100	; 0x64
 8001538:	d901      	bls.n	800153e <HAL_RCC_OscConfig+0xf6>
          {
            return HAL_TIMEOUT;
 800153a:	2303      	movs	r3, #3
 800153c:	e200      	b.n	8001940 <HAL_RCC_OscConfig+0x4f8>
        while (__HAL_RCC_GET_FLAG(RCC_FLAG_HSERDY) == RESET)
 800153e:	4b5d      	ldr	r3, [pc, #372]	; (80016b4 <HAL_RCC_OscConfig+0x26c>)
 8001540:	681b      	ldr	r3, [r3, #0]
 8001542:	f403 3300 	and.w	r3, r3, #131072	; 0x20000
 8001546:	2b00      	cmp	r3, #0
 8001548:	d0f0      	beq.n	800152c <HAL_RCC_OscConfig+0xe4>
 800154a:	e014      	b.n	8001576 <HAL_RCC_OscConfig+0x12e>
        }
      }
      else
      {
        /* Get Start Tick */
        tickstart = HAL_GetTick();
 800154c:	f7ff fb7c 	bl	8000c48 <HAL_GetTick>
 8001550:	6138      	str	r0, [r7, #16]

        /* Wait till HSE is disabled */
        while (__HAL_RCC_GET_FLAG(RCC_FLAG_HSERDY) != RESET)
 8001552:	e008      	b.n	8001566 <HAL_RCC_OscConfig+0x11e>
        {
          if ((HAL_GetTick() - tickstart) > HSE_TIMEOUT_VALUE)
 8001554:	f7ff fb78 	bl	8000c48 <HAL_GetTick>
 8001558:	4602      	mov	r2, r0
 800155a:	693b      	ldr	r3, [r7, #16]
 800155c:	1ad3      	subs	r3, r2, r3
 800155e:	2b64      	cmp	r3, #100	; 0x64
 8001560:	d901      	bls.n	8001566 <HAL_RCC_OscConfig+0x11e>
          {
            return HAL_TIMEOUT;
 8001562:	2303      	movs	r3, #3
 8001564:	e1ec      	b.n	8001940 <HAL_RCC_OscConfig+0x4f8>
        while (__HAL_RCC_GET_FLAG(RCC_FLAG_HSERDY) != RESET)
 8001566:	4b53      	ldr	r3, [pc, #332]	; (80016b4 <HAL_RCC_OscConfig+0x26c>)
 8001568:	681b      	ldr	r3, [r3, #0]
 800156a:	f403 3300 	and.w	r3, r3, #131072	; 0x20000
 800156e:	2b00      	cmp	r3, #0
 8001570:	d1f0      	bne.n	8001554 <HAL_RCC_OscConfig+0x10c>
 8001572:	e000      	b.n	8001576 <HAL_RCC_OscConfig+0x12e>
      if ((__HAL_RCC_GET_FLAG(RCC_FLAG_HSERDY) != RESET) && (RCC_OscInitStruct->HSEState == RCC_HSE_OFF))
 8001574:	bf00      	nop
        }
      }
    }
  }
  /*----------------------------- HSI Configuration --------------------------*/
  if (((RCC_OscInitStruct->OscillatorType) & RCC_OSCILLATORTYPE_HSI) == RCC_OSCILLATORTYPE_HSI)
 8001576:	687b      	ldr	r3, [r7, #4]
 8001578:	681b      	ldr	r3, [r3, #0]
 800157a:	f003 0302 	and.w	r3, r3, #2
 800157e:	2b00      	cmp	r3, #0
 8001580:	d063      	beq.n	800164a <HAL_RCC_OscConfig+0x202>
    /* Check the parameters */
    assert_param(IS_RCC_HSI(RCC_OscInitStruct->HSIState));
    assert_param(IS_RCC_CALIBRATION_VALUE(RCC_OscInitStruct->HSICalibrationValue));

    /* Check if HSI is used as system clock or as PLL source when PLL is selected as system clock */
    if ((__HAL_RCC_GET_SYSCLK_SOURCE() == RCC_SYSCLKSOURCE_STATUS_HSI)
 8001582:	4b4c      	ldr	r3, [pc, #304]	; (80016b4 <HAL_RCC_OscConfig+0x26c>)
 8001584:	685b      	ldr	r3, [r3, #4]
 8001586:	f003 030c 	and.w	r3, r3, #12
 800158a:	2b00      	cmp	r3, #0
 800158c:	d00b      	beq.n	80015a6 <HAL_RCC_OscConfig+0x15e>
        || ((__HAL_RCC_GET_SYSCLK_SOURCE() == RCC_SYSCLKSOURCE_STATUS_PLLCLK) && (__HAL_RCC_GET_PLL_OSCSOURCE() == RCC_PLLSOURCE_HSI_DIV2)))
 800158e:	4b49      	ldr	r3, [pc, #292]	; (80016b4 <HAL_RCC_OscConfig+0x26c>)
 8001590:	685b      	ldr	r3, [r3, #4]
 8001592:	f003 030c 	and.w	r3, r3, #12
 8001596:	2b08      	cmp	r3, #8
 8001598:	d11c      	bne.n	80015d4 <HAL_RCC_OscConfig+0x18c>
 800159a:	4b46      	ldr	r3, [pc, #280]	; (80016b4 <HAL_RCC_OscConfig+0x26c>)
 800159c:	685b      	ldr	r3, [r3, #4]
 800159e:	f403 3380 	and.w	r3, r3, #65536	; 0x10000
 80015a2:	2b00      	cmp	r3, #0
 80015a4:	d116      	bne.n	80015d4 <HAL_RCC_OscConfig+0x18c>
    {
      /* When HSI is used as system clock it will not disabled */
      if ((__HAL_RCC_GET_FLAG(RCC_FLAG_HSIRDY) != RESET) && (RCC_OscInitStruct->HSIState != RCC_HSI_ON))
 80015a6:	4b43      	ldr	r3, [pc, #268]	; (80016b4 <HAL_RCC_OscConfig+0x26c>)
 80015a8:	681b      	ldr	r3, [r3, #0]
 80015aa:	f003 0302 	and.w	r3, r3, #2
 80015ae:	2b00      	cmp	r3, #0
 80015b0:	d005      	beq.n	80015be <HAL_RCC_OscConfig+0x176>
 80015b2:	687b      	ldr	r3, [r7, #4]
 80015b4:	691b      	ldr	r3, [r3, #16]
 80015b6:	2b01      	cmp	r3, #1
 80015b8:	d001      	beq.n	80015be <HAL_RCC_OscConfig+0x176>
      {
        return HAL_ERROR;
 80015ba:	2301      	movs	r3, #1
 80015bc:	e1c0      	b.n	8001940 <HAL_RCC_OscConfig+0x4f8>
      }
      /* Otherwise, just the calibration is allowed */
      else
      {
        /* Adjusts the Internal High Speed oscillator (HSI) calibration value.*/
        __HAL_RCC_HSI_CALIBRATIONVALUE_ADJUST(RCC_OscInitStruct->HSICalibrationValue);
 80015be:	4b3d      	ldr	r3, [pc, #244]	; (80016b4 <HAL_RCC_OscConfig+0x26c>)
 80015c0:	681b      	ldr	r3, [r3, #0]
 80015c2:	f023 02f8 	bic.w	r2, r3, #248	; 0xf8
 80015c6:	687b      	ldr	r3, [r7, #4]
 80015c8:	695b      	ldr	r3, [r3, #20]
 80015ca:	00db      	lsls	r3, r3, #3
 80015cc:	4939      	ldr	r1, [pc, #228]	; (80016b4 <HAL_RCC_OscConfig+0x26c>)
 80015ce:	4313      	orrs	r3, r2
 80015d0:	600b      	str	r3, [r1, #0]
      if ((__HAL_RCC_GET_FLAG(RCC_FLAG_HSIRDY) != RESET) && (RCC_OscInitStruct->HSIState != RCC_HSI_ON))
 80015d2:	e03a      	b.n	800164a <HAL_RCC_OscConfig+0x202>
      }
    }
    else
    {
      /* Check the HSI State */
      if (RCC_OscInitStruct->HSIState != RCC_HSI_OFF)
 80015d4:	687b      	ldr	r3, [r7, #4]
 80015d6:	691b      	ldr	r3, [r3, #16]
 80015d8:	2b00      	cmp	r3, #0
 80015da:	d020      	beq.n	800161e <HAL_RCC_OscConfig+0x1d6>
      {
        /* Enable the Internal High Speed oscillator (HSI). */
        __HAL_RCC_HSI_ENABLE();
 80015dc:	4b36      	ldr	r3, [pc, #216]	; (80016b8 <HAL_RCC_OscConfig+0x270>)
 80015de:	2201      	movs	r2, #1
 80015e0:	601a      	str	r2, [r3, #0]

        /* Get Start Tick */
        tickstart = HAL_GetTick();
 80015e2:	f7ff fb31 	bl	8000c48 <HAL_GetTick>
 80015e6:	6138      	str	r0, [r7, #16]

        /* Wait till HSI is ready */
        while (__HAL_RCC_GET_FLAG(RCC_FLAG_HSIRDY) == RESET)
 80015e8:	e008      	b.n	80015fc <HAL_RCC_OscConfig+0x1b4>
        {
          if ((HAL_GetTick() - tickstart) > HSI_TIMEOUT_VALUE)
 80015ea:	f7ff fb2d 	bl	8000c48 <HAL_GetTick>
 80015ee:	4602      	mov	r2, r0
 80015f0:	693b      	ldr	r3, [r7, #16]
 80015f2:	1ad3      	subs	r3, r2, r3
 80015f4:	2b02      	cmp	r3, #2
 80015f6:	d901      	bls.n	80015fc <HAL_RCC_OscConfig+0x1b4>
          {
            return HAL_TIMEOUT;
 80015f8:	2303      	movs	r3, #3
 80015fa:	e1a1      	b.n	8001940 <HAL_RCC_OscConfig+0x4f8>
        while (__HAL_RCC_GET_FLAG(RCC_FLAG_HSIRDY) == RESET)
 80015fc:	4b2d      	ldr	r3, [pc, #180]	; (80016b4 <HAL_RCC_OscConfig+0x26c>)
 80015fe:	681b      	ldr	r3, [r3, #0]
 8001600:	f003 0302 	and.w	r3, r3, #2
 8001604:	2b00      	cmp	r3, #0
 8001606:	d0f0      	beq.n	80015ea <HAL_RCC_OscConfig+0x1a2>
          }
        }

        /* Adjusts the Internal High Speed oscillator (HSI) calibration value.*/
        __HAL_RCC_HSI_CALIBRATIONVALUE_ADJUST(RCC_OscInitStruct->HSICalibrationValue);
 8001608:	4b2a      	ldr	r3, [pc, #168]	; (80016b4 <HAL_RCC_OscConfig+0x26c>)
 800160a:	681b      	ldr	r3, [r3, #0]
 800160c:	f023 02f8 	bic.w	r2, r3, #248	; 0xf8
 8001610:	687b      	ldr	r3, [r7, #4]
 8001612:	695b      	ldr	r3, [r3, #20]
 8001614:	00db      	lsls	r3, r3, #3
 8001616:	4927      	ldr	r1, [pc, #156]	; (80016b4 <HAL_RCC_OscConfig+0x26c>)
 8001618:	4313      	orrs	r3, r2
 800161a:	600b      	str	r3, [r1, #0]
 800161c:	e015      	b.n	800164a <HAL_RCC_OscConfig+0x202>
      }
      else
      {
        /* Disable the Internal High Speed oscillator (HSI). */
        __HAL_RCC_HSI_DISABLE();
 800161e:	4b26      	ldr	r3, [pc, #152]	; (80016b8 <HAL_RCC_OscConfig+0x270>)
 8001620:	2200      	movs	r2, #0
 8001622:	601a      	str	r2, [r3, #0]

        /* Get Start Tick */
        tickstart = HAL_GetTick();
 8001624:	f7ff fb10 	bl	8000c48 <HAL_GetTick>
 8001628:	6138      	str	r0, [r7, #16]

        /* Wait till HSI is disabled */
        while (__HAL_RCC_GET_FLAG(RCC_FLAG_HSIRDY) != RESET)
 800162a:	e008      	b.n	800163e <HAL_RCC_OscConfig+0x1f6>
        {
          if ((HAL_GetTick() - tickstart) > HSI_TIMEOUT_VALUE)
 800162c:	f7ff fb0c 	bl	8000c48 <HAL_GetTick>
 8001630:	4602      	mov	r2, r0
 8001632:	693b      	ldr	r3, [r7, #16]
 8001634:	1ad3      	subs	r3, r2, r3
 8001636:	2b02      	cmp	r3, #2
 8001638:	d901      	bls.n	800163e <HAL_RCC_OscConfig+0x1f6>
          {
            return HAL_TIMEOUT;
 800163a:	2303      	movs	r3, #3
 800163c:	e180      	b.n	8001940 <HAL_RCC_OscConfig+0x4f8>
        while (__HAL_RCC_GET_FLAG(RCC_FLAG_HSIRDY) != RESET)
 800163e:	4b1d      	ldr	r3, [pc, #116]	; (80016b4 <HAL_RCC_OscConfig+0x26c>)
 8001640:	681b      	ldr	r3, [r3, #0]
 8001642:	f003 0302 	and.w	r3, r3, #2
 8001646:	2b00      	cmp	r3, #0
 8001648:	d1f0      	bne.n	800162c <HAL_RCC_OscConfig+0x1e4>
        }
      }
    }
  }
  /*------------------------------ LSI Configuration -------------------------*/
  if (((RCC_OscInitStruct->OscillatorType) & RCC_OSCILLATORTYPE_LSI) == RCC_OSCILLATORTYPE_LSI)
 800164a:	687b      	ldr	r3, [r7, #4]
 800164c:	681b      	ldr	r3, [r3, #0]
 800164e:	f003 0308 	and.w	r3, r3, #8
 8001652:	2b00      	cmp	r3, #0
 8001654:	d03a      	beq.n	80016cc <HAL_RCC_OscConfig+0x284>
  {
    /* Check the parameters */
    assert_param(IS_RCC_LSI(RCC_OscInitStruct->LSIState));

    /* Check the LSI State */
    if (RCC_OscInitStruct->LSIState != RCC_LSI_OFF)
 8001656:	687b      	ldr	r3, [r7, #4]
 8001658:	699b      	ldr	r3, [r3, #24]
 800165a:	2b00      	cmp	r3, #0
 800165c:	d019      	beq.n	8001692 <HAL_RCC_OscConfig+0x24a>
    {
      /* Enable the Internal Low Speed oscillator (LSI). */
      __HAL_RCC_LSI_ENABLE();
 800165e:	4b17      	ldr	r3, [pc, #92]	; (80016bc <HAL_RCC_OscConfig+0x274>)
 8001660:	2201      	movs	r2, #1
 8001662:	601a      	str	r2, [r3, #0]

      /* Get Start Tick */
      tickstart = HAL_GetTick();
 8001664:	f7ff faf0 	bl	8000c48 <HAL_GetTick>
 8001668:	6138      	str	r0, [r7, #16]

      /* Wait till LSI is ready */
      while (__HAL_RCC_GET_FLAG(RCC_FLAG_LSIRDY) == RESET)
 800166a:	e008      	b.n	800167e <HAL_RCC_OscConfig+0x236>
      {
        if ((HAL_GetTick() - tickstart) > LSI_TIMEOUT_VALUE)
 800166c:	f7ff faec 	bl	8000c48 <HAL_GetTick>
 8001670:	4602      	mov	r2, r0
 8001672:	693b      	ldr	r3, [r7, #16]
 8001674:	1ad3      	subs	r3, r2, r3
 8001676:	2b02      	cmp	r3, #2
 8001678:	d901      	bls.n	800167e <HAL_RCC_OscConfig+0x236>
        {
          return HAL_TIMEOUT;
 800167a:	2303      	movs	r3, #3
 800167c:	e160      	b.n	8001940 <HAL_RCC_OscConfig+0x4f8>
      while (__HAL_RCC_GET_FLAG(RCC_FLAG_LSIRDY) == RESET)
 800167e:	4b0d      	ldr	r3, [pc, #52]	; (80016b4 <HAL_RCC_OscConfig+0x26c>)
 8001680:	6a5b      	ldr	r3, [r3, #36]	; 0x24
 8001682:	f003 0302 	and.w	r3, r3, #2
 8001686:	2b00      	cmp	r3, #0
 8001688:	d0f0      	beq.n	800166c <HAL_RCC_OscConfig+0x224>
        }
      }
      /*  To have a fully stabilized clock in the specified range, a software delay of 1ms
          should be added.*/
      RCC_Delay(1);
 800168a:	2001      	movs	r0, #1
 800168c:	f000 face 	bl	8001c2c <RCC_Delay>
 8001690:	e01c      	b.n	80016cc <HAL_RCC_OscConfig+0x284>
    }
    else
    {
      /* Disable the Internal Low Speed oscillator (LSI). */
      __HAL_RCC_LSI_DISABLE();
 8001692:	4b0a      	ldr	r3, [pc, #40]	; (80016bc <HAL_RCC_OscConfig+0x274>)
 8001694:	2200      	movs	r2, #0
 8001696:	601a      	str	r2, [r3, #0]

      /* Get Start Tick */
      tickstart = HAL_GetTick();
 8001698:	f7ff fad6 	bl	8000c48 <HAL_GetTick>
 800169c:	6138      	str	r0, [r7, #16]

      /* Wait till LSI is disabled */
      while (__HAL_RCC_GET_FLAG(RCC_FLAG_LSIRDY) != RESET)
 800169e:	e00f      	b.n	80016c0 <HAL_RCC_OscConfig+0x278>
      {
        if ((HAL_GetTick() - tickstart) > LSI_TIMEOUT_VALUE)
 80016a0:	f7ff fad2 	bl	8000c48 <HAL_GetTick>
 80016a4:	4602      	mov	r2, r0
 80016a6:	693b      	ldr	r3, [r7, #16]
 80016a8:	1ad3      	subs	r3, r2, r3
 80016aa:	2b02      	cmp	r3, #2
 80016ac:	d908      	bls.n	80016c0 <HAL_RCC_OscConfig+0x278>
        {
          return HAL_TIMEOUT;
 80016ae:	2303      	movs	r3, #3
 80016b0:	e146      	b.n	8001940 <HAL_RCC_OscConfig+0x4f8>
 80016b2:	bf00      	nop
 80016b4:	40021000 	.word	0x40021000
 80016b8:	42420000 	.word	0x42420000
 80016bc:	42420480 	.word	0x42420480
      while (__HAL_RCC_GET_FLAG(RCC_FLAG_LSIRDY) != RESET)
 80016c0:	4b92      	ldr	r3, [pc, #584]	; (800190c <HAL_RCC_OscConfig+0x4c4>)
 80016c2:	6a5b      	ldr	r3, [r3, #36]	; 0x24
 80016c4:	f003 0302 	and.w	r3, r3, #2
 80016c8:	2b00      	cmp	r3, #0
 80016ca:	d1e9      	bne.n	80016a0 <HAL_RCC_OscConfig+0x258>
        }
      }
    }
  }
  /*------------------------------ LSE Configuration -------------------------*/
  if (((RCC_OscInitStruct->OscillatorType) & RCC_OSCILLATORTYPE_LSE) == RCC_OSCILLATORTYPE_LSE)
 80016cc:	687b      	ldr	r3, [r7, #4]
 80016ce:	681b      	ldr	r3, [r3, #0]
 80016d0:	f003 0304 	and.w	r3, r3, #4
 80016d4:	2b00      	cmp	r3, #0
 80016d6:	f000 80a6 	beq.w	8001826 <HAL_RCC_OscConfig+0x3de>
  {
    FlagStatus       pwrclkchanged = RESET;
 80016da:	2300      	movs	r3, #0
 80016dc:	75fb      	strb	r3, [r7, #23]
    /* Check the parameters */
    assert_param(IS_RCC_LSE(RCC_OscInitStruct->LSEState));

    /* Update LSE configuration in Backup Domain control register    */
    /* Requires to enable write access to Backup Domain of necessary */
    if (__HAL_RCC_PWR_IS_CLK_DISABLED())
 80016de:	4b8b      	ldr	r3, [pc, #556]	; (800190c <HAL_RCC_OscConfig+0x4c4>)
 80016e0:	69db      	ldr	r3, [r3, #28]
 80016e2:	f003 5380 	and.w	r3, r3, #268435456	; 0x10000000
 80016e6:	2b00      	cmp	r3, #0
 80016e8:	d10d      	bne.n	8001706 <HAL_RCC_OscConfig+0x2be>
    {
      __HAL_RCC_PWR_CLK_ENABLE();
 80016ea:	4b88      	ldr	r3, [pc, #544]	; (800190c <HAL_RCC_OscConfig+0x4c4>)
 80016ec:	69db      	ldr	r3, [r3, #28]
 80016ee:	4a87      	ldr	r2, [pc, #540]	; (800190c <HAL_RCC_OscConfig+0x4c4>)
 80016f0:	f043 5380 	orr.w	r3, r3, #268435456	; 0x10000000
 80016f4:	61d3      	str	r3, [r2, #28]
 80016f6:	4b85      	ldr	r3, [pc, #532]	; (800190c <HAL_RCC_OscConfig+0x4c4>)
 80016f8:	69db      	ldr	r3, [r3, #28]
 80016fa:	f003 5380 	and.w	r3, r3, #268435456	; 0x10000000
 80016fe:	60bb      	str	r3, [r7, #8]
 8001700:	68bb      	ldr	r3, [r7, #8]
      pwrclkchanged = SET;
 8001702:	2301      	movs	r3, #1
 8001704:	75fb      	strb	r3, [r7, #23]
    }

    if (HAL_IS_BIT_CLR(PWR->CR, PWR_CR_DBP))
 8001706:	4b82      	ldr	r3, [pc, #520]	; (8001910 <HAL_RCC_OscConfig+0x4c8>)
 8001708:	681b      	ldr	r3, [r3, #0]
 800170a:	f403 7380 	and.w	r3, r3, #256	; 0x100
 800170e:	2b00      	cmp	r3, #0
 8001710:	d118      	bne.n	8001744 <HAL_RCC_OscConfig+0x2fc>
    {
      /* Enable write access to Backup domain */
      SET_BIT(PWR->CR, PWR_CR_DBP);
 8001712:	4b7f      	ldr	r3, [pc, #508]	; (8001910 <HAL_RCC_OscConfig+0x4c8>)
 8001714:	681b      	ldr	r3, [r3, #0]
 8001716:	4a7e      	ldr	r2, [pc, #504]	; (8001910 <HAL_RCC_OscConfig+0x4c8>)
 8001718:	f443 7380 	orr.w	r3, r3, #256	; 0x100
 800171c:	6013      	str	r3, [r2, #0]

      /* Wait for Backup domain Write protection disable */
      tickstart = HAL_GetTick();
 800171e:	f7ff fa93 	bl	8000c48 <HAL_GetTick>
 8001722:	6138      	str	r0, [r7, #16]

      while (HAL_IS_BIT_CLR(PWR->CR, PWR_CR_DBP))
 8001724:	e008      	b.n	8001738 <HAL_RCC_OscConfig+0x2f0>
      {
        if ((HAL_GetTick() - tickstart) > RCC_DBP_TIMEOUT_VALUE)
 8001726:	f7ff fa8f 	bl	8000c48 <HAL_GetTick>
 800172a:	4602      	mov	r2, r0
 800172c:	693b      	ldr	r3, [r7, #16]
 800172e:	1ad3      	subs	r3, r2, r3
 8001730:	2b64      	cmp	r3, #100	; 0x64
 8001732:	d901      	bls.n	8001738 <HAL_RCC_OscConfig+0x2f0>
        {
          return HAL_TIMEOUT;
 8001734:	2303      	movs	r3, #3
 8001736:	e103      	b.n	8001940 <HAL_RCC_OscConfig+0x4f8>
      while (HAL_IS_BIT_CLR(PWR->CR, PWR_CR_DBP))
 8001738:	4b75      	ldr	r3, [pc, #468]	; (8001910 <HAL_RCC_OscConfig+0x4c8>)
 800173a:	681b      	ldr	r3, [r3, #0]
 800173c:	f403 7380 	and.w	r3, r3, #256	; 0x100
 8001740:	2b00      	cmp	r3, #0
 8001742:	d0f0      	beq.n	8001726 <HAL_RCC_OscConfig+0x2de>
        }
      }
    }

    /* Set the new LSE configuration -----------------------------------------*/
    __HAL_RCC_LSE_CONFIG(RCC_OscInitStruct->LSEState);
 8001744:	687b      	ldr	r3, [r7, #4]
 8001746:	68db      	ldr	r3, [r3, #12]
 8001748:	2b01      	cmp	r3, #1
 800174a:	d106      	bne.n	800175a <HAL_RCC_OscConfig+0x312>
 800174c:	4b6f      	ldr	r3, [pc, #444]	; (800190c <HAL_RCC_OscConfig+0x4c4>)
 800174e:	6a1b      	ldr	r3, [r3, #32]
 8001750:	4a6e      	ldr	r2, [pc, #440]	; (800190c <HAL_RCC_OscConfig+0x4c4>)
 8001752:	f043 0301 	orr.w	r3, r3, #1
 8001756:	6213      	str	r3, [r2, #32]
 8001758:	e02d      	b.n	80017b6 <HAL_RCC_OscConfig+0x36e>
 800175a:	687b      	ldr	r3, [r7, #4]
 800175c:	68db      	ldr	r3, [r3, #12]
 800175e:	2b00      	cmp	r3, #0
 8001760:	d10c      	bne.n	800177c <HAL_RCC_OscConfig+0x334>
 8001762:	4b6a      	ldr	r3, [pc, #424]	; (800190c <HAL_RCC_OscConfig+0x4c4>)
 8001764:	6a1b      	ldr	r3, [r3, #32]
 8001766:	4a69      	ldr	r2, [pc, #420]	; (800190c <HAL_RCC_OscConfig+0x4c4>)
 8001768:	f023 0301 	bic.w	r3, r3, #1
 800176c:	6213      	str	r3, [r2, #32]
 800176e:	4b67      	ldr	r3, [pc, #412]	; (800190c <HAL_RCC_OscConfig+0x4c4>)
 8001770:	6a1b      	ldr	r3, [r3, #32]
 8001772:	4a66      	ldr	r2, [pc, #408]	; (800190c <HAL_RCC_OscConfig+0x4c4>)
 8001774:	f023 0304 	bic.w	r3, r3, #4
 8001778:	6213      	str	r3, [r2, #32]
 800177a:	e01c      	b.n	80017b6 <HAL_RCC_OscConfig+0x36e>
 800177c:	687b      	ldr	r3, [r7, #4]
 800177e:	68db      	ldr	r3, [r3, #12]
 8001780:	2b05      	cmp	r3, #5
 8001782:	d10c      	bne.n	800179e <HAL_RCC_OscConfig+0x356>
 8001784:	4b61      	ldr	r3, [pc, #388]	; (800190c <HAL_RCC_OscConfig+0x4c4>)
 8001786:	6a1b      	ldr	r3, [r3, #32]
 8001788:	4a60      	ldr	r2, [pc, #384]	; (800190c <HAL_RCC_OscConfig+0x4c4>)
 800178a:	f043 0304 	orr.w	r3, r3, #4
 800178e:	6213      	str	r3, [r2, #32]
 8001790:	4b5e      	ldr	r3, [pc, #376]	; (800190c <HAL_RCC_OscConfig+0x4c4>)
 8001792:	6a1b      	ldr	r3, [r3, #32]
 8001794:	4a5d      	ldr	r2, [pc, #372]	; (800190c <HAL_RCC_OscConfig+0x4c4>)
 8001796:	f043 0301 	orr.w	r3, r3, #1
 800179a:	6213      	str	r3, [r2, #32]
 800179c:	e00b      	b.n	80017b6 <HAL_RCC_OscConfig+0x36e>
 800179e:	4b5b      	ldr	r3, [pc, #364]	; (800190c <HAL_RCC_OscConfig+0x4c4>)
 80017a0:	6a1b      	ldr	r3, [r3, #32]
 80017a2:	4a5a      	ldr	r2, [pc, #360]	; (800190c <HAL_RCC_OscConfig+0x4c4>)
 80017a4:	f023 0301 	bic.w	r3, r3, #1
 80017a8:	6213      	str	r3, [r2, #32]
 80017aa:	4b58      	ldr	r3, [pc, #352]	; (800190c <HAL_RCC_OscConfig+0x4c4>)
 80017ac:	6a1b      	ldr	r3, [r3, #32]
 80017ae:	4a57      	ldr	r2, [pc, #348]	; (800190c <HAL_RCC_OscConfig+0x4c4>)
 80017b0:	f023 0304 	bic.w	r3, r3, #4
 80017b4:	6213      	str	r3, [r2, #32]
    /* Check the LSE State */
    if (RCC_OscInitStruct->LSEState != RCC_LSE_OFF)
 80017b6:	687b      	ldr	r3, [r7, #4]
 80017b8:	68db      	ldr	r3, [r3, #12]
 80017ba:	2b00      	cmp	r3, #0
 80017bc:	d015      	beq.n	80017ea <HAL_RCC_OscConfig+0x3a2>
    {
      /* Get Start Tick */
      tickstart = HAL_GetTick();
 80017be:	f7ff fa43 	bl	8000c48 <HAL_GetTick>
 80017c2:	6138      	str	r0, [r7, #16]

      /* Wait till LSE is ready */
      while (__HAL_RCC_GET_FLAG(RCC_FLAG_LSERDY) == RESET)
 80017c4:	e00a      	b.n	80017dc <HAL_RCC_OscConfig+0x394>
      {
        if ((HAL_GetTick() - tickstart) > RCC_LSE_TIMEOUT_VALUE)
 80017c6:	f7ff fa3f 	bl	8000c48 <HAL_GetTick>
 80017ca:	4602      	mov	r2, r0
 80017cc:	693b      	ldr	r3, [r7, #16]
 80017ce:	1ad3      	subs	r3, r2, r3
 80017d0:	f241 3288 	movw	r2, #5000	; 0x1388
 80017d4:	4293      	cmp	r3, r2
 80017d6:	d901      	bls.n	80017dc <HAL_RCC_OscConfig+0x394>
        {
          return HAL_TIMEOUT;
 80017d8:	2303      	movs	r3, #3
 80017da:	e0b1      	b.n	8001940 <HAL_RCC_OscConfig+0x4f8>
      while (__HAL_RCC_GET_FLAG(RCC_FLAG_LSERDY) == RESET)
 80017dc:	4b4b      	ldr	r3, [pc, #300]	; (800190c <HAL_RCC_OscConfig+0x4c4>)
 80017de:	6a1b      	ldr	r3, [r3, #32]
 80017e0:	f003 0302 	and.w	r3, r3, #2
 80017e4:	2b00      	cmp	r3, #0
 80017e6:	d0ee      	beq.n	80017c6 <HAL_RCC_OscConfig+0x37e>
 80017e8:	e014      	b.n	8001814 <HAL_RCC_OscConfig+0x3cc>
      }
    }
    else
    {
      /* Get Start Tick */
      tickstart = HAL_GetTick();
 80017ea:	f7ff fa2d 	bl	8000c48 <HAL_GetTick>
 80017ee:	6138      	str	r0, [r7, #16]

      /* Wait till LSE is disabled */
      while (__HAL_RCC_GET_FLAG(RCC_FLAG_LSERDY) != RESET)
 80017f0:	e00a      	b.n	8001808 <HAL_RCC_OscConfig+0x3c0>
      {
        if ((HAL_GetTick() - tickstart) > RCC_LSE_TIMEOUT_VALUE)
 80017f2:	f7ff fa29 	bl	8000c48 <HAL_GetTick>
 80017f6:	4602      	mov	r2, r0
 80017f8:	693b      	ldr	r3, [r7, #16]
 80017fa:	1ad3      	subs	r3, r2, r3
 80017fc:	f241 3288 	movw	r2, #5000	; 0x1388
 8001800:	4293      	cmp	r3, r2
 8001802:	d901      	bls.n	8001808 <HAL_RCC_OscConfig+0x3c0>
        {
          return HAL_TIMEOUT;
 8001804:	2303      	movs	r3, #3
 8001806:	e09b      	b.n	8001940 <HAL_RCC_OscConfig+0x4f8>
      while (__HAL_RCC_GET_FLAG(RCC_FLAG_LSERDY) != RESET)
 8001808:	4b40      	ldr	r3, [pc, #256]	; (800190c <HAL_RCC_OscConfig+0x4c4>)
 800180a:	6a1b      	ldr	r3, [r3, #32]
 800180c:	f003 0302 	and.w	r3, r3, #2
 8001810:	2b00      	cmp	r3, #0
 8001812:	d1ee      	bne.n	80017f2 <HAL_RCC_OscConfig+0x3aa>
        }
      }
    }

    /* Require to disable power clock if necessary */
    if (pwrclkchanged == SET)
 8001814:	7dfb      	ldrb	r3, [r7, #23]
 8001816:	2b01      	cmp	r3, #1
 8001818:	d105      	bne.n	8001826 <HAL_RCC_OscConfig+0x3de>
    {
      __HAL_RCC_PWR_CLK_DISABLE();
 800181a:	4b3c      	ldr	r3, [pc, #240]	; (800190c <HAL_RCC_OscConfig+0x4c4>)
 800181c:	69db      	ldr	r3, [r3, #28]
 800181e:	4a3b      	ldr	r2, [pc, #236]	; (800190c <HAL_RCC_OscConfig+0x4c4>)
 8001820:	f023 5380 	bic.w	r3, r3, #268435456	; 0x10000000
 8001824:	61d3      	str	r3, [r2, #28]

#endif /* RCC_CR_PLL2ON */
  /*-------------------------------- PLL Configuration -----------------------*/
  /* Check the parameters */
  assert_param(IS_RCC_PLL(RCC_OscInitStruct->PLL.PLLState));
  if ((RCC_OscInitStruct->PLL.PLLState) != RCC_PLL_NONE)
 8001826:	687b      	ldr	r3, [r7, #4]
 8001828:	69db      	ldr	r3, [r3, #28]
 800182a:	2b00      	cmp	r3, #0
 800182c:	f000 8087 	beq.w	800193e <HAL_RCC_OscConfig+0x4f6>
  {
    /* Check if the PLL is used as system clock or not */
    if (__HAL_RCC_GET_SYSCLK_SOURCE() != RCC_SYSCLKSOURCE_STATUS_PLLCLK)
 8001830:	4b36      	ldr	r3, [pc, #216]	; (800190c <HAL_RCC_OscConfig+0x4c4>)
 8001832:	685b      	ldr	r3, [r3, #4]
 8001834:	f003 030c 	and.w	r3, r3, #12
 8001838:	2b08      	cmp	r3, #8
 800183a:	d061      	beq.n	8001900 <HAL_RCC_OscConfig+0x4b8>
    {
      if ((RCC_OscInitStruct->PLL.PLLState) == RCC_PLL_ON)
 800183c:	687b      	ldr	r3, [r7, #4]
 800183e:	69db      	ldr	r3, [r3, #28]
 8001840:	2b02      	cmp	r3, #2
 8001842:	d146      	bne.n	80018d2 <HAL_RCC_OscConfig+0x48a>
        /* Check the parameters */
        assert_param(IS_RCC_PLLSOURCE(RCC_OscInitStruct->PLL.PLLSource));
        assert_param(IS_RCC_PLL_MUL(RCC_OscInitStruct->PLL.PLLMUL));

        /* Disable the main PLL. */
        __HAL_RCC_PLL_DISABLE();
 8001844:	4b33      	ldr	r3, [pc, #204]	; (8001914 <HAL_RCC_OscConfig+0x4cc>)
 8001846:	2200      	movs	r2, #0
 8001848:	601a      	str	r2, [r3, #0]

        /* Get Start Tick */
        tickstart = HAL_GetTick();
 800184a:	f7ff f9fd 	bl	8000c48 <HAL_GetTick>
 800184e:	6138      	str	r0, [r7, #16]

        /* Wait till PLL is disabled */
        while (__HAL_RCC_GET_FLAG(RCC_FLAG_PLLRDY)  != RESET)
 8001850:	e008      	b.n	8001864 <HAL_RCC_OscConfig+0x41c>
        {
          if ((HAL_GetTick() - tickstart) > PLL_TIMEOUT_VALUE)
 8001852:	f7ff f9f9 	bl	8000c48 <HAL_GetTick>
 8001856:	4602      	mov	r2, r0
 8001858:	693b      	ldr	r3, [r7, #16]
 800185a:	1ad3      	subs	r3, r2, r3
 800185c:	2b02      	cmp	r3, #2
 800185e:	d901      	bls.n	8001864 <HAL_RCC_OscConfig+0x41c>
          {
            return HAL_TIMEOUT;
 8001860:	2303      	movs	r3, #3
 8001862:	e06d      	b.n	8001940 <HAL_RCC_OscConfig+0x4f8>
        while (__HAL_RCC_GET_FLAG(RCC_FLAG_PLLRDY)  != RESET)
 8001864:	4b29      	ldr	r3, [pc, #164]	; (800190c <HAL_RCC_OscConfig+0x4c4>)
 8001866:	681b      	ldr	r3, [r3, #0]
 8001868:	f003 7300 	and.w	r3, r3, #33554432	; 0x2000000
 800186c:	2b00      	cmp	r3, #0
 800186e:	d1f0      	bne.n	8001852 <HAL_RCC_OscConfig+0x40a>
          }
        }

        /* Configure the HSE prediv factor --------------------------------*/
        /* It can be written only when the PLL is disabled. Not used in PLL source is different than HSE */
        if (RCC_OscInitStruct->PLL.PLLSource == RCC_PLLSOURCE_HSE)
 8001870:	687b      	ldr	r3, [r7, #4]
 8001872:	6a1b      	ldr	r3, [r3, #32]
 8001874:	f5b3 3f80 	cmp.w	r3, #65536	; 0x10000
 8001878:	d108      	bne.n	800188c <HAL_RCC_OscConfig+0x444>
          /* Set PREDIV1 source */
          SET_BIT(RCC->CFGR2, RCC_OscInitStruct->Prediv1Source);
#endif /* RCC_CFGR2_PREDIV1SRC */

          /* Set PREDIV1 Value */
          __HAL_RCC_HSE_PREDIV_CONFIG(RCC_OscInitStruct->HSEPredivValue);
 800187a:	4b24      	ldr	r3, [pc, #144]	; (800190c <HAL_RCC_OscConfig+0x4c4>)
 800187c:	685b      	ldr	r3, [r3, #4]
 800187e:	f423 3200 	bic.w	r2, r3, #131072	; 0x20000
 8001882:	687b      	ldr	r3, [r7, #4]
 8001884:	689b      	ldr	r3, [r3, #8]
 8001886:	4921      	ldr	r1, [pc, #132]	; (800190c <HAL_RCC_OscConfig+0x4c4>)
 8001888:	4313      	orrs	r3, r2
 800188a:	604b      	str	r3, [r1, #4]
        }

        /* Configure the main PLL clock source and multiplication factors. */
        __HAL_RCC_PLL_CONFIG(RCC_OscInitStruct->PLL.PLLSource,
 800188c:	4b1f      	ldr	r3, [pc, #124]	; (800190c <HAL_RCC_OscConfig+0x4c4>)
 800188e:	685b      	ldr	r3, [r3, #4]
 8001890:	f423 1274 	bic.w	r2, r3, #3997696	; 0x3d0000
 8001894:	687b      	ldr	r3, [r7, #4]
 8001896:	6a19      	ldr	r1, [r3, #32]
 8001898:	687b      	ldr	r3, [r7, #4]
 800189a:	6a5b      	ldr	r3, [r3, #36]	; 0x24
 800189c:	430b      	orrs	r3, r1
 800189e:	491b      	ldr	r1, [pc, #108]	; (800190c <HAL_RCC_OscConfig+0x4c4>)
 80018a0:	4313      	orrs	r3, r2
 80018a2:	604b      	str	r3, [r1, #4]
                             RCC_OscInitStruct->PLL.PLLMUL);
        /* Enable the main PLL. */
        __HAL_RCC_PLL_ENABLE();
 80018a4:	4b1b      	ldr	r3, [pc, #108]	; (8001914 <HAL_RCC_OscConfig+0x4cc>)
 80018a6:	2201      	movs	r2, #1
 80018a8:	601a      	str	r2, [r3, #0]

        /* Get Start Tick */
        tickstart = HAL_GetTick();
 80018aa:	f7ff f9cd 	bl	8000c48 <HAL_GetTick>
 80018ae:	6138      	str	r0, [r7, #16]

        /* Wait till PLL is ready */
        while (__HAL_RCC_GET_FLAG(RCC_FLAG_PLLRDY)  == RESET)
 80018b0:	e008      	b.n	80018c4 <HAL_RCC_OscConfig+0x47c>
        {
          if ((HAL_GetTick() - tickstart) > PLL_TIMEOUT_VALUE)
 80018b2:	f7ff f9c9 	bl	8000c48 <HAL_GetTick>
 80018b6:	4602      	mov	r2, r0
 80018b8:	693b      	ldr	r3, [r7, #16]
 80018ba:	1ad3      	subs	r3, r2, r3
 80018bc:	2b02      	cmp	r3, #2
 80018be:	d901      	bls.n	80018c4 <HAL_RCC_OscConfig+0x47c>
          {
            return HAL_TIMEOUT;
 80018c0:	2303      	movs	r3, #3
 80018c2:	e03d      	b.n	8001940 <HAL_RCC_OscConfig+0x4f8>
        while (__HAL_RCC_GET_FLAG(RCC_FLAG_PLLRDY)  == RESET)
 80018c4:	4b11      	ldr	r3, [pc, #68]	; (800190c <HAL_RCC_OscConfig+0x4c4>)
 80018c6:	681b      	ldr	r3, [r3, #0]
 80018c8:	f003 7300 	and.w	r3, r3, #33554432	; 0x2000000
 80018cc:	2b00      	cmp	r3, #0
 80018ce:	d0f0      	beq.n	80018b2 <HAL_RCC_OscConfig+0x46a>
 80018d0:	e035      	b.n	800193e <HAL_RCC_OscConfig+0x4f6>
        }
      }
      else
      {
        /* Disable the main PLL. */
        __HAL_RCC_PLL_DISABLE();
 80018d2:	4b10      	ldr	r3, [pc, #64]	; (8001914 <HAL_RCC_OscConfig+0x4cc>)
 80018d4:	2200      	movs	r2, #0
 80018d6:	601a      	str	r2, [r3, #0]

        /* Get Start Tick */
        tickstart = HAL_GetTick();
 80018d8:	f7ff f9b6 	bl	8000c48 <HAL_GetTick>
 80018dc:	6138      	str	r0, [r7, #16]

        /* Wait till PLL is disabled */
        while (__HAL_RCC_GET_FLAG(RCC_FLAG_PLLRDY)  != RESET)
 80018de:	e008      	b.n	80018f2 <HAL_RCC_OscConfig+0x4aa>
        {
          if ((HAL_GetTick() - tickstart) > PLL_TIMEOUT_VALUE)
 80018e0:	f7ff f9b2 	bl	8000c48 <HAL_GetTick>
 80018e4:	4602      	mov	r2, r0
 80018e6:	693b      	ldr	r3, [r7, #16]
 80018e8:	1ad3      	subs	r3, r2, r3
 80018ea:	2b02      	cmp	r3, #2
 80018ec:	d901      	bls.n	80018f2 <HAL_RCC_OscConfig+0x4aa>
          {
            return HAL_TIMEOUT;
 80018ee:	2303      	movs	r3, #3
 80018f0:	e026      	b.n	8001940 <HAL_RCC_OscConfig+0x4f8>
        while (__HAL_RCC_GET_FLAG(RCC_FLAG_PLLRDY)  != RESET)
 80018f2:	4b06      	ldr	r3, [pc, #24]	; (800190c <HAL_RCC_OscConfig+0x4c4>)
 80018f4:	681b      	ldr	r3, [r3, #0]
 80018f6:	f003 7300 	and.w	r3, r3, #33554432	; 0x2000000
 80018fa:	2b00      	cmp	r3, #0
 80018fc:	d1f0      	bne.n	80018e0 <HAL_RCC_OscConfig+0x498>
 80018fe:	e01e      	b.n	800193e <HAL_RCC_OscConfig+0x4f6>
      }
    }
    else
    {
      /* Check if there is a request to disable the PLL used as System clock source */
      if ((RCC_OscInitStruct->PLL.PLLState) == RCC_PLL_OFF)
 8001900:	687b      	ldr	r3, [r7, #4]
 8001902:	69db      	ldr	r3, [r3, #28]
 8001904:	2b01      	cmp	r3, #1
 8001906:	d107      	bne.n	8001918 <HAL_RCC_OscConfig+0x4d0>
      {
        return HAL_ERROR;
 8001908:	2301      	movs	r3, #1
 800190a:	e019      	b.n	8001940 <HAL_RCC_OscConfig+0x4f8>
 800190c:	40021000 	.word	0x40021000
 8001910:	40007000 	.word	0x40007000
 8001914:	42420060 	.word	0x42420060
      }
      else
      {
        /* Do not return HAL_ERROR if request repeats the current configuration */
        pll_config = RCC->CFGR;
 8001918:	4b0b      	ldr	r3, [pc, #44]	; (8001948 <HAL_RCC_OscConfig+0x500>)
 800191a:	685b      	ldr	r3, [r3, #4]
 800191c:	60fb      	str	r3, [r7, #12]
        if ((READ_BIT(pll_config, RCC_CFGR_PLLSRC) != RCC_OscInitStruct->PLL.PLLSource) ||
 800191e:	68fb      	ldr	r3, [r7, #12]
 8001920:	f403 3280 	and.w	r2, r3, #65536	; 0x10000
 8001924:	687b      	ldr	r3, [r7, #4]
 8001926:	6a1b      	ldr	r3, [r3, #32]
 8001928:	429a      	cmp	r2, r3
 800192a:	d106      	bne.n	800193a <HAL_RCC_OscConfig+0x4f2>
            (READ_BIT(pll_config, RCC_CFGR_PLLMULL) != RCC_OscInitStruct->PLL.PLLMUL))
 800192c:	68fb      	ldr	r3, [r7, #12]
 800192e:	f403 1270 	and.w	r2, r3, #3932160	; 0x3c0000
 8001932:	687b      	ldr	r3, [r7, #4]
 8001934:	6a5b      	ldr	r3, [r3, #36]	; 0x24
        if ((READ_BIT(pll_config, RCC_CFGR_PLLSRC) != RCC_OscInitStruct->PLL.PLLSource) ||
 8001936:	429a      	cmp	r2, r3
 8001938:	d001      	beq.n	800193e <HAL_RCC_OscConfig+0x4f6>
        {
          return HAL_ERROR;
 800193a:	2301      	movs	r3, #1
 800193c:	e000      	b.n	8001940 <HAL_RCC_OscConfig+0x4f8>
        }
      }
    }
  }

  return HAL_OK;
 800193e:	2300      	movs	r3, #0
}
 8001940:	4618      	mov	r0, r3
 8001942:	3718      	adds	r7, #24
 8001944:	46bd      	mov	sp, r7
 8001946:	bd80      	pop	{r7, pc}
 8001948:	40021000 	.word	0x40021000

0800194c <HAL_RCC_ClockConfig>:
  *         You can use @ref HAL_RCC_GetClockConfig() function to know which clock is
  *         currently used as system clock source.
  * @retval HAL status
  */
HAL_StatusTypeDef HAL_RCC_ClockConfig(RCC_ClkInitTypeDef  *RCC_ClkInitStruct, uint32_t FLatency)
{
 800194c:	b580      	push	{r7, lr}
 800194e:	b084      	sub	sp, #16
 8001950:	af00      	add	r7, sp, #0
 8001952:	6078      	str	r0, [r7, #4]
 8001954:	6039      	str	r1, [r7, #0]
  uint32_t tickstart;

  /* Check Null pointer */
  if (RCC_ClkInitStruct == NULL)
 8001956:	687b      	ldr	r3, [r7, #4]
 8001958:	2b00      	cmp	r3, #0
 800195a:	d101      	bne.n	8001960 <HAL_RCC_ClockConfig+0x14>
  {
    return HAL_ERROR;
 800195c:	2301      	movs	r3, #1
 800195e:	e0d0      	b.n	8001b02 <HAL_RCC_ClockConfig+0x1b6>
  must be correctly programmed according to the frequency of the CPU clock
    (HCLK) of the device. */

#if defined(FLASH_ACR_LATENCY)
  /* Increasing the number of wait states because of higher CPU frequency */
  if (FLatency > __HAL_FLASH_GET_LATENCY())
 8001960:	4b6a      	ldr	r3, [pc, #424]	; (8001b0c <HAL_RCC_ClockConfig+0x1c0>)
 8001962:	681b      	ldr	r3, [r3, #0]
 8001964:	f003 0307 	and.w	r3, r3, #7
 8001968:	683a      	ldr	r2, [r7, #0]
 800196a:	429a      	cmp	r2, r3
 800196c:	d910      	bls.n	8001990 <HAL_RCC_ClockConfig+0x44>
  {
    /* Program the new number of wait states to the LATENCY bits in the FLASH_ACR register */
    __HAL_FLASH_SET_LATENCY(FLatency);
 800196e:	4b67      	ldr	r3, [pc, #412]	; (8001b0c <HAL_RCC_ClockConfig+0x1c0>)
 8001970:	681b      	ldr	r3, [r3, #0]
 8001972:	f023 0207 	bic.w	r2, r3, #7
 8001976:	4965      	ldr	r1, [pc, #404]	; (8001b0c <HAL_RCC_ClockConfig+0x1c0>)
 8001978:	683b      	ldr	r3, [r7, #0]
 800197a:	4313      	orrs	r3, r2
 800197c:	600b      	str	r3, [r1, #0]

    /* Check that the new number of wait states is taken into account to access the Flash
    memory by reading the FLASH_ACR register */
    if (__HAL_FLASH_GET_LATENCY() != FLatency)
 800197e:	4b63      	ldr	r3, [pc, #396]	; (8001b0c <HAL_RCC_ClockConfig+0x1c0>)
 8001980:	681b      	ldr	r3, [r3, #0]
 8001982:	f003 0307 	and.w	r3, r3, #7
 8001986:	683a      	ldr	r2, [r7, #0]
 8001988:	429a      	cmp	r2, r3
 800198a:	d001      	beq.n	8001990 <HAL_RCC_ClockConfig+0x44>
  {
    return HAL_ERROR;
 800198c:	2301      	movs	r3, #1
 800198e:	e0b8      	b.n	8001b02 <HAL_RCC_ClockConfig+0x1b6>
  }
}

#endif /* FLASH_ACR_LATENCY */
/*-------------------------- HCLK Configuration --------------------------*/
if (((RCC_ClkInitStruct->ClockType) & RCC_CLOCKTYPE_HCLK) == RCC_CLOCKTYPE_HCLK)
 8001990:	687b      	ldr	r3, [r7, #4]
 8001992:	681b      	ldr	r3, [r3, #0]
 8001994:	f003 0302 	and.w	r3, r3, #2
 8001998:	2b00      	cmp	r3, #0
 800199a:	d020      	beq.n	80019de <HAL_RCC_ClockConfig+0x92>
  {
    /* Set the highest APBx dividers in order to ensure that we do not go through
    a non-spec phase whatever we decrease or increase HCLK. */
    if (((RCC_ClkInitStruct->ClockType) & RCC_CLOCKTYPE_PCLK1) == RCC_CLOCKTYPE_PCLK1)
 800199c:	687b      	ldr	r3, [r7, #4]
 800199e:	681b      	ldr	r3, [r3, #0]
 80019a0:	f003 0304 	and.w	r3, r3, #4
 80019a4:	2b00      	cmp	r3, #0
 80019a6:	d005      	beq.n	80019b4 <HAL_RCC_ClockConfig+0x68>
    {
      MODIFY_REG(RCC->CFGR, RCC_CFGR_PPRE1, RCC_HCLK_DIV16);
 80019a8:	4b59      	ldr	r3, [pc, #356]	; (8001b10 <HAL_RCC_ClockConfig+0x1c4>)
 80019aa:	685b      	ldr	r3, [r3, #4]
 80019ac:	4a58      	ldr	r2, [pc, #352]	; (8001b10 <HAL_RCC_ClockConfig+0x1c4>)
 80019ae:	f443 63e0 	orr.w	r3, r3, #1792	; 0x700
 80019b2:	6053      	str	r3, [r2, #4]
    }

    if (((RCC_ClkInitStruct->ClockType) & RCC_CLOCKTYPE_PCLK2) == RCC_CLOCKTYPE_PCLK2)
 80019b4:	687b      	ldr	r3, [r7, #4]
 80019b6:	681b      	ldr	r3, [r3, #0]
 80019b8:	f003 0308 	and.w	r3, r3, #8
 80019bc:	2b00      	cmp	r3, #0
 80019be:	d005      	beq.n	80019cc <HAL_RCC_ClockConfig+0x80>
    {
      MODIFY_REG(RCC->CFGR, RCC_CFGR_PPRE2, (RCC_HCLK_DIV16 << 3));
 80019c0:	4b53      	ldr	r3, [pc, #332]	; (8001b10 <HAL_RCC_ClockConfig+0x1c4>)
 80019c2:	685b      	ldr	r3, [r3, #4]
 80019c4:	4a52      	ldr	r2, [pc, #328]	; (8001b10 <HAL_RCC_ClockConfig+0x1c4>)
 80019c6:	f443 5360 	orr.w	r3, r3, #14336	; 0x3800
 80019ca:	6053      	str	r3, [r2, #4]
    }

    /* Set the new HCLK clock divider */
    assert_param(IS_RCC_HCLK(RCC_ClkInitStruct->AHBCLKDivider));
    MODIFY_REG(RCC->CFGR, RCC_CFGR_HPRE, RCC_ClkInitStruct->AHBCLKDivider);
 80019cc:	4b50      	ldr	r3, [pc, #320]	; (8001b10 <HAL_RCC_ClockConfig+0x1c4>)
 80019ce:	685b      	ldr	r3, [r3, #4]
 80019d0:	f023 02f0 	bic.w	r2, r3, #240	; 0xf0
 80019d4:	687b      	ldr	r3, [r7, #4]
 80019d6:	689b      	ldr	r3, [r3, #8]
 80019d8:	494d      	ldr	r1, [pc, #308]	; (8001b10 <HAL_RCC_ClockConfig+0x1c4>)
 80019da:	4313      	orrs	r3, r2
 80019dc:	604b      	str	r3, [r1, #4]
  }

  /*------------------------- SYSCLK Configuration ---------------------------*/
  if (((RCC_ClkInitStruct->ClockType) & RCC_CLOCKTYPE_SYSCLK) == RCC_CLOCKTYPE_SYSCLK)
 80019de:	687b      	ldr	r3, [r7, #4]
 80019e0:	681b      	ldr	r3, [r3, #0]
 80019e2:	f003 0301 	and.w	r3, r3, #1
 80019e6:	2b00      	cmp	r3, #0
 80019e8:	d040      	beq.n	8001a6c <HAL_RCC_ClockConfig+0x120>
  {
    assert_param(IS_RCC_SYSCLKSOURCE(RCC_ClkInitStruct->SYSCLKSource));

    /* HSE is selected as System Clock Source */
    if (RCC_ClkInitStruct->SYSCLKSource == RCC_SYSCLKSOURCE_HSE)
 80019ea:	687b      	ldr	r3, [r7, #4]
 80019ec:	685b      	ldr	r3, [r3, #4]
 80019ee:	2b01      	cmp	r3, #1
 80019f0:	d107      	bne.n	8001a02 <HAL_RCC_ClockConfig+0xb6>
    {
      /* Check the HSE ready flag */
      if (__HAL_RCC_GET_FLAG(RCC_FLAG_HSERDY) == RESET)
 80019f2:	4b47      	ldr	r3, [pc, #284]	; (8001b10 <HAL_RCC_ClockConfig+0x1c4>)
 80019f4:	681b      	ldr	r3, [r3, #0]
 80019f6:	f403 3300 	and.w	r3, r3, #131072	; 0x20000
 80019fa:	2b00      	cmp	r3, #0
 80019fc:	d115      	bne.n	8001a2a <HAL_RCC_ClockConfig+0xde>
      {
        return HAL_ERROR;
 80019fe:	2301      	movs	r3, #1
 8001a00:	e07f      	b.n	8001b02 <HAL_RCC_ClockConfig+0x1b6>
      }
    }
    /* PLL is selected as System Clock Source */
    else if (RCC_ClkInitStruct->SYSCLKSource == RCC_SYSCLKSOURCE_PLLCLK)
 8001a02:	687b      	ldr	r3, [r7, #4]
 8001a04:	685b      	ldr	r3, [r3, #4]
 8001a06:	2b02      	cmp	r3, #2
 8001a08:	d107      	bne.n	8001a1a <HAL_RCC_ClockConfig+0xce>
    {
      /* Check the PLL ready flag */
      if (__HAL_RCC_GET_FLAG(RCC_FLAG_PLLRDY) == RESET)
 8001a0a:	4b41      	ldr	r3, [pc, #260]	; (8001b10 <HAL_RCC_ClockConfig+0x1c4>)
 8001a0c:	681b      	ldr	r3, [r3, #0]
 8001a0e:	f003 7300 	and.w	r3, r3, #33554432	; 0x2000000
 8001a12:	2b00      	cmp	r3, #0
 8001a14:	d109      	bne.n	8001a2a <HAL_RCC_ClockConfig+0xde>
      {
        return HAL_ERROR;
 8001a16:	2301      	movs	r3, #1
 8001a18:	e073      	b.n	8001b02 <HAL_RCC_ClockConfig+0x1b6>
    }
    /* HSI is selected as System Clock Source */
    else
    {
      /* Check the HSI ready flag */
      if (__HAL_RCC_GET_FLAG(RCC_FLAG_HSIRDY) == RESET)
 8001a1a:	4b3d      	ldr	r3, [pc, #244]	; (8001b10 <HAL_RCC_ClockConfig+0x1c4>)
 8001a1c:	681b      	ldr	r3, [r3, #0]
 8001a1e:	f003 0302 	and.w	r3, r3, #2
 8001a22:	2b00      	cmp	r3, #0
 8001a24:	d101      	bne.n	8001a2a <HAL_RCC_ClockConfig+0xde>
      {
        return HAL_ERROR;
 8001a26:	2301      	movs	r3, #1
 8001a28:	e06b      	b.n	8001b02 <HAL_RCC_ClockConfig+0x1b6>
      }
    }
    __HAL_RCC_SYSCLK_CONFIG(RCC_ClkInitStruct->SYSCLKSource);
 8001a2a:	4b39      	ldr	r3, [pc, #228]	; (8001b10 <HAL_RCC_ClockConfig+0x1c4>)
 8001a2c:	685b      	ldr	r3, [r3, #4]
 8001a2e:	f023 0203 	bic.w	r2, r3, #3
 8001a32:	687b      	ldr	r3, [r7, #4]
 8001a34:	685b      	ldr	r3, [r3, #4]
 8001a36:	4936      	ldr	r1, [pc, #216]	; (8001b10 <HAL_RCC_ClockConfig+0x1c4>)
 8001a38:	4313      	orrs	r3, r2
 8001a3a:	604b      	str	r3, [r1, #4]

    /* Get Start Tick */
    tickstart = HAL_GetTick();
 8001a3c:	f7ff f904 	bl	8000c48 <HAL_GetTick>
 8001a40:	60f8      	str	r0, [r7, #12]

    while (__HAL_RCC_GET_SYSCLK_SOURCE() != (RCC_ClkInitStruct->SYSCLKSource << RCC_CFGR_SWS_Pos))
 8001a42:	e00a      	b.n	8001a5a <HAL_RCC_ClockConfig+0x10e>
    {
      if ((HAL_GetTick() - tickstart) > CLOCKSWITCH_TIMEOUT_VALUE)
 8001a44:	f7ff f900 	bl	8000c48 <HAL_GetTick>
 8001a48:	4602      	mov	r2, r0
 8001a4a:	68fb      	ldr	r3, [r7, #12]
 8001a4c:	1ad3      	subs	r3, r2, r3
 8001a4e:	f241 3288 	movw	r2, #5000	; 0x1388
 8001a52:	4293      	cmp	r3, r2
 8001a54:	d901      	bls.n	8001a5a <HAL_RCC_ClockConfig+0x10e>
      {
        return HAL_TIMEOUT;
 8001a56:	2303      	movs	r3, #3
 8001a58:	e053      	b.n	8001b02 <HAL_RCC_ClockConfig+0x1b6>
    while (__HAL_RCC_GET_SYSCLK_SOURCE() != (RCC_ClkInitStruct->SYSCLKSource << RCC_CFGR_SWS_Pos))
 8001a5a:	4b2d      	ldr	r3, [pc, #180]	; (8001b10 <HAL_RCC_ClockConfig+0x1c4>)
 8001a5c:	685b      	ldr	r3, [r3, #4]
 8001a5e:	f003 020c 	and.w	r2, r3, #12
 8001a62:	687b      	ldr	r3, [r7, #4]
 8001a64:	685b      	ldr	r3, [r3, #4]
 8001a66:	009b      	lsls	r3, r3, #2
 8001a68:	429a      	cmp	r2, r3
 8001a6a:	d1eb      	bne.n	8001a44 <HAL_RCC_ClockConfig+0xf8>
    }
  }

#if defined(FLASH_ACR_LATENCY)
  /* Decreasing the number of wait states because of lower CPU frequency */
  if (FLatency < __HAL_FLASH_GET_LATENCY())
 8001a6c:	4b27      	ldr	r3, [pc, #156]	; (8001b0c <HAL_RCC_ClockConfig+0x1c0>)
 8001a6e:	681b      	ldr	r3, [r3, #0]
 8001a70:	f003 0307 	and.w	r3, r3, #7
 8001a74:	683a      	ldr	r2, [r7, #0]
 8001a76:	429a      	cmp	r2, r3
 8001a78:	d210      	bcs.n	8001a9c <HAL_RCC_ClockConfig+0x150>
  {
    /* Program the new number of wait states to the LATENCY bits in the FLASH_ACR register */
    __HAL_FLASH_SET_LATENCY(FLatency);
 8001a7a:	4b24      	ldr	r3, [pc, #144]	; (8001b0c <HAL_RCC_ClockConfig+0x1c0>)
 8001a7c:	681b      	ldr	r3, [r3, #0]
 8001a7e:	f023 0207 	bic.w	r2, r3, #7
 8001a82:	4922      	ldr	r1, [pc, #136]	; (8001b0c <HAL_RCC_ClockConfig+0x1c0>)
 8001a84:	683b      	ldr	r3, [r7, #0]
 8001a86:	4313      	orrs	r3, r2
 8001a88:	600b      	str	r3, [r1, #0]

    /* Check that the new number of wait states is taken into account to access the Flash
    memory by reading the FLASH_ACR register */
    if (__HAL_FLASH_GET_LATENCY() != FLatency)
 8001a8a:	4b20      	ldr	r3, [pc, #128]	; (8001b0c <HAL_RCC_ClockConfig+0x1c0>)
 8001a8c:	681b      	ldr	r3, [r3, #0]
 8001a8e:	f003 0307 	and.w	r3, r3, #7
 8001a92:	683a      	ldr	r2, [r7, #0]
 8001a94:	429a      	cmp	r2, r3
 8001a96:	d001      	beq.n	8001a9c <HAL_RCC_ClockConfig+0x150>
  {
    return HAL_ERROR;
 8001a98:	2301      	movs	r3, #1
 8001a9a:	e032      	b.n	8001b02 <HAL_RCC_ClockConfig+0x1b6>
  }
}
#endif /* FLASH_ACR_LATENCY */

/*-------------------------- PCLK1 Configuration ---------------------------*/
if (((RCC_ClkInitStruct->ClockType) & RCC_CLOCKTYPE_PCLK1) == RCC_CLOCKTYPE_PCLK1)
 8001a9c:	687b      	ldr	r3, [r7, #4]
 8001a9e:	681b      	ldr	r3, [r3, #0]
 8001aa0:	f003 0304 	and.w	r3, r3, #4
 8001aa4:	2b00      	cmp	r3, #0
 8001aa6:	d008      	beq.n	8001aba <HAL_RCC_ClockConfig+0x16e>
  {
    assert_param(IS_RCC_PCLK(RCC_ClkInitStruct->APB1CLKDivider));
    MODIFY_REG(RCC->CFGR, RCC_CFGR_PPRE1, RCC_ClkInitStruct->APB1CLKDivider);
 8001aa8:	4b19      	ldr	r3, [pc, #100]	; (8001b10 <HAL_RCC_ClockConfig+0x1c4>)
 8001aaa:	685b      	ldr	r3, [r3, #4]
 8001aac:	f423 62e0 	bic.w	r2, r3, #1792	; 0x700
 8001ab0:	687b      	ldr	r3, [r7, #4]
 8001ab2:	68db      	ldr	r3, [r3, #12]
 8001ab4:	4916      	ldr	r1, [pc, #88]	; (8001b10 <HAL_RCC_ClockConfig+0x1c4>)
 8001ab6:	4313      	orrs	r3, r2
 8001ab8:	604b      	str	r3, [r1, #4]
  }

  /*-------------------------- PCLK2 Configuration ---------------------------*/
  if (((RCC_ClkInitStruct->ClockType) & RCC_CLOCKTYPE_PCLK2) == RCC_CLOCKTYPE_PCLK2)
 8001aba:	687b      	ldr	r3, [r7, #4]
 8001abc:	681b      	ldr	r3, [r3, #0]
 8001abe:	f003 0308 	and.w	r3, r3, #8
 8001ac2:	2b00      	cmp	r3, #0
 8001ac4:	d009      	beq.n	8001ada <HAL_RCC_ClockConfig+0x18e>
  {
    assert_param(IS_RCC_PCLK(RCC_ClkInitStruct->APB2CLKDivider));
    MODIFY_REG(RCC->CFGR, RCC_CFGR_PPRE2, ((RCC_ClkInitStruct->APB2CLKDivider) << 3));
 8001ac6:	4b12      	ldr	r3, [pc, #72]	; (8001b10 <HAL_RCC_ClockConfig+0x1c4>)
 8001ac8:	685b      	ldr	r3, [r3, #4]
 8001aca:	f423 5260 	bic.w	r2, r3, #14336	; 0x3800
 8001ace:	687b      	ldr	r3, [r7, #4]
 8001ad0:	691b      	ldr	r3, [r3, #16]
 8001ad2:	00db      	lsls	r3, r3, #3
 8001ad4:	490e      	ldr	r1, [pc, #56]	; (8001b10 <HAL_RCC_ClockConfig+0x1c4>)
 8001ad6:	4313      	orrs	r3, r2
 8001ad8:	604b      	str	r3, [r1, #4]
  }

  /* Update the SystemCoreClock global variable */
  SystemCoreClock = HAL_RCC_GetSysClockFreq() >> AHBPrescTable[(RCC->CFGR & RCC_CFGR_HPRE) >> RCC_CFGR_HPRE_Pos];
 8001ada:	f000 f821 	bl	8001b20 <HAL_RCC_GetSysClockFreq>
 8001ade:	4602      	mov	r2, r0
 8001ae0:	4b0b      	ldr	r3, [pc, #44]	; (8001b10 <HAL_RCC_ClockConfig+0x1c4>)
 8001ae2:	685b      	ldr	r3, [r3, #4]
 8001ae4:	091b      	lsrs	r3, r3, #4
 8001ae6:	f003 030f 	and.w	r3, r3, #15
 8001aea:	490a      	ldr	r1, [pc, #40]	; (8001b14 <HAL_RCC_ClockConfig+0x1c8>)
 8001aec:	5ccb      	ldrb	r3, [r1, r3]
 8001aee:	fa22 f303 	lsr.w	r3, r2, r3
 8001af2:	4a09      	ldr	r2, [pc, #36]	; (8001b18 <HAL_RCC_ClockConfig+0x1cc>)
 8001af4:	6013      	str	r3, [r2, #0]

  /* Configure the source of time base considering new system clocks settings*/
  HAL_InitTick(uwTickPrio);
 8001af6:	4b09      	ldr	r3, [pc, #36]	; (8001b1c <HAL_RCC_ClockConfig+0x1d0>)
 8001af8:	681b      	ldr	r3, [r3, #0]
 8001afa:	4618      	mov	r0, r3
 8001afc:	f7ff f862 	bl	8000bc4 <HAL_InitTick>

  return HAL_OK;
 8001b00:	2300      	movs	r3, #0
}
 8001b02:	4618      	mov	r0, r3
 8001b04:	3710      	adds	r7, #16
 8001b06:	46bd      	mov	sp, r7
 8001b08:	bd80      	pop	{r7, pc}
 8001b0a:	bf00      	nop
 8001b0c:	40022000 	.word	0x40022000
 8001b10:	40021000 	.word	0x40021000
 8001b14:	08003a70 	.word	0x08003a70
 8001b18:	20000000 	.word	0x20000000
 8001b1c:	20000004 	.word	0x20000004

08001b20 <HAL_RCC_GetSysClockFreq>:
  *         right SYSCLK value. Otherwise, any configuration based on this function will be incorrect.
  *
  * @retval SYSCLK frequency
  */
uint32_t HAL_RCC_GetSysClockFreq(void)
{
 8001b20:	b480      	push	{r7}
 8001b22:	b087      	sub	sp, #28
 8001b24:	af00      	add	r7, sp, #0
#else
  static const uint8_t aPredivFactorTable[2U] = {1, 2};
#endif /*RCC_CFGR2_PREDIV1*/

#endif
  uint32_t tmpreg = 0U, prediv = 0U, pllclk = 0U, pllmul = 0U;
 8001b26:	2300      	movs	r3, #0
 8001b28:	60fb      	str	r3, [r7, #12]
 8001b2a:	2300      	movs	r3, #0
 8001b2c:	60bb      	str	r3, [r7, #8]
 8001b2e:	2300      	movs	r3, #0
 8001b30:	617b      	str	r3, [r7, #20]
 8001b32:	2300      	movs	r3, #0
 8001b34:	607b      	str	r3, [r7, #4]
  uint32_t sysclockfreq = 0U;
 8001b36:	2300      	movs	r3, #0
 8001b38:	613b      	str	r3, [r7, #16]
#if defined(RCC_CFGR2_PREDIV1SRC)
  uint32_t prediv2 = 0U, pll2mul = 0U;
#endif /*RCC_CFGR2_PREDIV1SRC*/

  tmpreg = RCC->CFGR;
 8001b3a:	4b1e      	ldr	r3, [pc, #120]	; (8001bb4 <HAL_RCC_GetSysClockFreq+0x94>)
 8001b3c:	685b      	ldr	r3, [r3, #4]
 8001b3e:	60fb      	str	r3, [r7, #12]

  /* Get SYSCLK source -------------------------------------------------------*/
  switch (tmpreg & RCC_CFGR_SWS)
 8001b40:	68fb      	ldr	r3, [r7, #12]
 8001b42:	f003 030c 	and.w	r3, r3, #12
 8001b46:	2b04      	cmp	r3, #4
 8001b48:	d002      	beq.n	8001b50 <HAL_RCC_GetSysClockFreq+0x30>
 8001b4a:	2b08      	cmp	r3, #8
 8001b4c:	d003      	beq.n	8001b56 <HAL_RCC_GetSysClockFreq+0x36>
 8001b4e:	e027      	b.n	8001ba0 <HAL_RCC_GetSysClockFreq+0x80>
  {
    case RCC_SYSCLKSOURCE_STATUS_HSE:  /* HSE used as system clock */
    {
      sysclockfreq = HSE_VALUE;
 8001b50:	4b19      	ldr	r3, [pc, #100]	; (8001bb8 <HAL_RCC_GetSysClockFreq+0x98>)
 8001b52:	613b      	str	r3, [r7, #16]
      break;
 8001b54:	e027      	b.n	8001ba6 <HAL_RCC_GetSysClockFreq+0x86>
    }
    case RCC_SYSCLKSOURCE_STATUS_PLLCLK:  /* PLL used as system clock */
    {
      pllmul = aPLLMULFactorTable[(uint32_t)(tmpreg & RCC_CFGR_PLLMULL) >> RCC_CFGR_PLLMULL_Pos];
 8001b56:	68fb      	ldr	r3, [r7, #12]
 8001b58:	0c9b      	lsrs	r3, r3, #18
 8001b5a:	f003 030f 	and.w	r3, r3, #15
 8001b5e:	4a17      	ldr	r2, [pc, #92]	; (8001bbc <HAL_RCC_GetSysClockFreq+0x9c>)
 8001b60:	5cd3      	ldrb	r3, [r2, r3]
 8001b62:	607b      	str	r3, [r7, #4]
      if ((tmpreg & RCC_CFGR_PLLSRC) != RCC_PLLSOURCE_HSI_DIV2)
 8001b64:	68fb      	ldr	r3, [r7, #12]
 8001b66:	f403 3380 	and.w	r3, r3, #65536	; 0x10000
 8001b6a:	2b00      	cmp	r3, #0
 8001b6c:	d010      	beq.n	8001b90 <HAL_RCC_GetSysClockFreq+0x70>
      {
#if defined(RCC_CFGR2_PREDIV1)
        prediv = aPredivFactorTable[(uint32_t)(RCC->CFGR2 & RCC_CFGR2_PREDIV1) >> RCC_CFGR2_PREDIV1_Pos];
#else
        prediv = aPredivFactorTable[(uint32_t)(RCC->CFGR & RCC_CFGR_PLLXTPRE) >> RCC_CFGR_PLLXTPRE_Pos];
 8001b6e:	4b11      	ldr	r3, [pc, #68]	; (8001bb4 <HAL_RCC_GetSysClockFreq+0x94>)
 8001b70:	685b      	ldr	r3, [r3, #4]
 8001b72:	0c5b      	lsrs	r3, r3, #17
 8001b74:	f003 0301 	and.w	r3, r3, #1
 8001b78:	4a11      	ldr	r2, [pc, #68]	; (8001bc0 <HAL_RCC_GetSysClockFreq+0xa0>)
 8001b7a:	5cd3      	ldrb	r3, [r2, r3]
 8001b7c:	60bb      	str	r3, [r7, #8]
        {
          pllclk = pllclk / 2;
        }
#else
        /* HSE used as PLL clock source : PLLCLK = HSE/PREDIV1 * PLLMUL */
        pllclk = (uint32_t)((HSE_VALUE  * pllmul) / prediv);
 8001b7e:	687b      	ldr	r3, [r7, #4]
 8001b80:	4a0d      	ldr	r2, [pc, #52]	; (8001bb8 <HAL_RCC_GetSysClockFreq+0x98>)
 8001b82:	fb03 f202 	mul.w	r2, r3, r2
 8001b86:	68bb      	ldr	r3, [r7, #8]
 8001b88:	fbb2 f3f3 	udiv	r3, r2, r3
 8001b8c:	617b      	str	r3, [r7, #20]
 8001b8e:	e004      	b.n	8001b9a <HAL_RCC_GetSysClockFreq+0x7a>
#endif /*RCC_CFGR2_PREDIV1SRC*/
      }
      else
      {
        /* HSI used as PLL clock source : PLLCLK = HSI/2 * PLLMUL */
        pllclk = (uint32_t)((HSI_VALUE >> 1) * pllmul);
 8001b90:	687b      	ldr	r3, [r7, #4]
 8001b92:	4a0c      	ldr	r2, [pc, #48]	; (8001bc4 <HAL_RCC_GetSysClockFreq+0xa4>)
 8001b94:	fb02 f303 	mul.w	r3, r2, r3
 8001b98:	617b      	str	r3, [r7, #20]
      }
      sysclockfreq = pllclk;
 8001b9a:	697b      	ldr	r3, [r7, #20]
 8001b9c:	613b      	str	r3, [r7, #16]
      break;
 8001b9e:	e002      	b.n	8001ba6 <HAL_RCC_GetSysClockFreq+0x86>
    }
    case RCC_SYSCLKSOURCE_STATUS_HSI:  /* HSI used as system clock source */
    default: /* HSI used as system clock */
    {
      sysclockfreq = HSI_VALUE;
 8001ba0:	4b05      	ldr	r3, [pc, #20]	; (8001bb8 <HAL_RCC_GetSysClockFreq+0x98>)
 8001ba2:	613b      	str	r3, [r7, #16]
      break;
 8001ba4:	bf00      	nop
    }
  }
  return sysclockfreq;
 8001ba6:	693b      	ldr	r3, [r7, #16]
}
 8001ba8:	4618      	mov	r0, r3
 8001baa:	371c      	adds	r7, #28
 8001bac:	46bd      	mov	sp, r7
 8001bae:	bc80      	pop	{r7}
 8001bb0:	4770      	bx	lr
 8001bb2:	bf00      	nop
 8001bb4:	40021000 	.word	0x40021000
 8001bb8:	007a1200 	.word	0x007a1200
 8001bbc:	08003a88 	.word	0x08003a88
 8001bc0:	08003a98 	.word	0x08003a98
 8001bc4:	003d0900 	.word	0x003d0900

08001bc8 <HAL_RCC_GetHCLKFreq>:
  * @note   The SystemCoreClock CMSIS variable is used to store System Clock Frequency
  *         and updated within this function
  * @retval HCLK frequency
  */
uint32_t HAL_RCC_GetHCLKFreq(void)
{
 8001bc8:	b480      	push	{r7}
 8001bca:	af00      	add	r7, sp, #0
  return SystemCoreClock;
 8001bcc:	4b02      	ldr	r3, [pc, #8]	; (8001bd8 <HAL_RCC_GetHCLKFreq+0x10>)
 8001bce:	681b      	ldr	r3, [r3, #0]
}
 8001bd0:	4618      	mov	r0, r3
 8001bd2:	46bd      	mov	sp, r7
 8001bd4:	bc80      	pop	{r7}
 8001bd6:	4770      	bx	lr
 8001bd8:	20000000 	.word	0x20000000

08001bdc <HAL_RCC_GetPCLK1Freq>:
  * @note   Each time PCLK1 changes, this function must be called to update the
  *         right PCLK1 value. Otherwise, any configuration based on this function will be incorrect.
  * @retval PCLK1 frequency
  */
uint32_t HAL_RCC_GetPCLK1Freq(void)
{
 8001bdc:	b580      	push	{r7, lr}
 8001bde:	af00      	add	r7, sp, #0
  /* Get HCLK source and Compute PCLK1 frequency ---------------------------*/
  return (HAL_RCC_GetHCLKFreq() >> APBPrescTable[(RCC->CFGR & RCC_CFGR_PPRE1) >> RCC_CFGR_PPRE1_Pos]);
 8001be0:	f7ff fff2 	bl	8001bc8 <HAL_RCC_GetHCLKFreq>
 8001be4:	4602      	mov	r2, r0
 8001be6:	4b05      	ldr	r3, [pc, #20]	; (8001bfc <HAL_RCC_GetPCLK1Freq+0x20>)
 8001be8:	685b      	ldr	r3, [r3, #4]
 8001bea:	0a1b      	lsrs	r3, r3, #8
 8001bec:	f003 0307 	and.w	r3, r3, #7
 8001bf0:	4903      	ldr	r1, [pc, #12]	; (8001c00 <HAL_RCC_GetPCLK1Freq+0x24>)
 8001bf2:	5ccb      	ldrb	r3, [r1, r3]
 8001bf4:	fa22 f303 	lsr.w	r3, r2, r3
}
 8001bf8:	4618      	mov	r0, r3
 8001bfa:	bd80      	pop	{r7, pc}
 8001bfc:	40021000 	.word	0x40021000
 8001c00:	08003a80 	.word	0x08003a80

08001c04 <HAL_RCC_GetPCLK2Freq>:
  * @note   Each time PCLK2 changes, this function must be called to update the
  *         right PCLK2 value. Otherwise, any configuration based on this function will be incorrect.
  * @retval PCLK2 frequency
  */
uint32_t HAL_RCC_GetPCLK2Freq(void)
{
 8001c04:	b580      	push	{r7, lr}
 8001c06:	af00      	add	r7, sp, #0
  /* Get HCLK source and Compute PCLK2 frequency ---------------------------*/
  return (HAL_RCC_GetHCLKFreq() >> APBPrescTable[(RCC->CFGR & RCC_CFGR_PPRE2) >> RCC_CFGR_PPRE2_Pos]);
 8001c08:	f7ff ffde 	bl	8001bc8 <HAL_RCC_GetHCLKFreq>
 8001c0c:	4602      	mov	r2, r0
 8001c0e:	4b05      	ldr	r3, [pc, #20]	; (8001c24 <HAL_RCC_GetPCLK2Freq+0x20>)
 8001c10:	685b      	ldr	r3, [r3, #4]
 8001c12:	0adb      	lsrs	r3, r3, #11
 8001c14:	f003 0307 	and.w	r3, r3, #7
 8001c18:	4903      	ldr	r1, [pc, #12]	; (8001c28 <HAL_RCC_GetPCLK2Freq+0x24>)
 8001c1a:	5ccb      	ldrb	r3, [r1, r3]
 8001c1c:	fa22 f303 	lsr.w	r3, r2, r3
}
 8001c20:	4618      	mov	r0, r3
 8001c22:	bd80      	pop	{r7, pc}
 8001c24:	40021000 	.word	0x40021000
 8001c28:	08003a80 	.word	0x08003a80

08001c2c <RCC_Delay>:
  * @brief  This function provides delay (in milliseconds) based on CPU cycles method.
  * @param  mdelay: specifies the delay time length, in milliseconds.
  * @retval None
  */
static void RCC_Delay(uint32_t mdelay)
{
 8001c2c:	b480      	push	{r7}
 8001c2e:	b085      	sub	sp, #20
 8001c30:	af00      	add	r7, sp, #0
 8001c32:	6078      	str	r0, [r7, #4]
  __IO uint32_t Delay = mdelay * (SystemCoreClock / 8U / 1000U);
 8001c34:	4b0a      	ldr	r3, [pc, #40]	; (8001c60 <RCC_Delay+0x34>)
 8001c36:	681b      	ldr	r3, [r3, #0]
 8001c38:	4a0a      	ldr	r2, [pc, #40]	; (8001c64 <RCC_Delay+0x38>)
 8001c3a:	fba2 2303 	umull	r2, r3, r2, r3
 8001c3e:	0a5b      	lsrs	r3, r3, #9
 8001c40:	687a      	ldr	r2, [r7, #4]
 8001c42:	fb02 f303 	mul.w	r3, r2, r3
 8001c46:	60fb      	str	r3, [r7, #12]
  do
  {
    __NOP();
 8001c48:	bf00      	nop
  }
  while (Delay --);
 8001c4a:	68fb      	ldr	r3, [r7, #12]
 8001c4c:	1e5a      	subs	r2, r3, #1
 8001c4e:	60fa      	str	r2, [r7, #12]
 8001c50:	2b00      	cmp	r3, #0
 8001c52:	d1f9      	bne.n	8001c48 <RCC_Delay+0x1c>
}
 8001c54:	bf00      	nop
 8001c56:	bf00      	nop
 8001c58:	3714      	adds	r7, #20
 8001c5a:	46bd      	mov	sp, r7
 8001c5c:	bc80      	pop	{r7}
 8001c5e:	4770      	bx	lr
 8001c60:	20000000 	.word	0x20000000
 8001c64:	10624dd3 	.word	0x10624dd3

08001c68 <HAL_TIM_Base_Init>:
  *         Ex: call @ref HAL_TIM_Base_DeInit() before HAL_TIM_Base_Init()
  * @param  htim TIM Base handle
  * @retval HAL status
  */
HAL_StatusTypeDef HAL_TIM_Base_Init(TIM_HandleTypeDef *htim)
{
 8001c68:	b580      	push	{r7, lr}
 8001c6a:	b082      	sub	sp, #8
 8001c6c:	af00      	add	r7, sp, #0
 8001c6e:	6078      	str	r0, [r7, #4]
  /* Check the TIM handle allocation */
  if (htim == NULL)
 8001c70:	687b      	ldr	r3, [r7, #4]
 8001c72:	2b00      	cmp	r3, #0
 8001c74:	d101      	bne.n	8001c7a <HAL_TIM_Base_Init+0x12>
  {
    return HAL_ERROR;
 8001c76:	2301      	movs	r3, #1
 8001c78:	e041      	b.n	8001cfe <HAL_TIM_Base_Init+0x96>
  assert_param(IS_TIM_COUNTER_MODE(htim->Init.CounterMode));
  assert_param(IS_TIM_CLOCKDIVISION_DIV(htim->Init.ClockDivision));
  assert_param(IS_TIM_PERIOD(htim->Init.Period));
  assert_param(IS_TIM_AUTORELOAD_PRELOAD(htim->Init.AutoReloadPreload));

  if (htim->State == HAL_TIM_STATE_RESET)
 8001c7a:	687b      	ldr	r3, [r7, #4]
 8001c7c:	f893 303d 	ldrb.w	r3, [r3, #61]	; 0x3d
 8001c80:	b2db      	uxtb	r3, r3
 8001c82:	2b00      	cmp	r3, #0
 8001c84:	d106      	bne.n	8001c94 <HAL_TIM_Base_Init+0x2c>
  {
    /* Allocate lock resource and initialize it */
    htim->Lock = HAL_UNLOCKED;
 8001c86:	687b      	ldr	r3, [r7, #4]
 8001c88:	2200      	movs	r2, #0
 8001c8a:	f883 203c 	strb.w	r2, [r3, #60]	; 0x3c
    }
    /* Init the low level hardware : GPIO, CLOCK, NVIC */
    htim->Base_MspInitCallback(htim);
#else
    /* Init the low level hardware : GPIO, CLOCK, NVIC */
    HAL_TIM_Base_MspInit(htim);
 8001c8e:	6878      	ldr	r0, [r7, #4]
 8001c90:	f7fe fe6c 	bl	800096c <HAL_TIM_Base_MspInit>
#endif /* USE_HAL_TIM_REGISTER_CALLBACKS */
  }

  /* Set the TIM state */
  htim->State = HAL_TIM_STATE_BUSY;
 8001c94:	687b      	ldr	r3, [r7, #4]
 8001c96:	2202      	movs	r2, #2
 8001c98:	f883 203d 	strb.w	r2, [r3, #61]	; 0x3d

  /* Set the Time Base configuration */
  TIM_Base_SetConfig(htim->Instance, &htim->Init);
 8001c9c:	687b      	ldr	r3, [r7, #4]
 8001c9e:	681a      	ldr	r2, [r3, #0]
 8001ca0:	687b      	ldr	r3, [r7, #4]
 8001ca2:	3304      	adds	r3, #4
 8001ca4:	4619      	mov	r1, r3
 8001ca6:	4610      	mov	r0, r2
 8001ca8:	f000 fa6e 	bl	8002188 <TIM_Base_SetConfig>

  /* Initialize the DMA burst operation state */
  htim->DMABurstState = HAL_DMA_BURST_STATE_READY;
 8001cac:	687b      	ldr	r3, [r7, #4]
 8001cae:	2201      	movs	r2, #1
 8001cb0:	f883 2046 	strb.w	r2, [r3, #70]	; 0x46

  /* Initialize the TIM channels state */
  TIM_CHANNEL_STATE_SET_ALL(htim, HAL_TIM_CHANNEL_STATE_READY);
 8001cb4:	687b      	ldr	r3, [r7, #4]
 8001cb6:	2201      	movs	r2, #1
 8001cb8:	f883 203e 	strb.w	r2, [r3, #62]	; 0x3e
 8001cbc:	687b      	ldr	r3, [r7, #4]
 8001cbe:	2201      	movs	r2, #1
 8001cc0:	f883 203f 	strb.w	r2, [r3, #63]	; 0x3f
 8001cc4:	687b      	ldr	r3, [r7, #4]
 8001cc6:	2201      	movs	r2, #1
 8001cc8:	f883 2040 	strb.w	r2, [r3, #64]	; 0x40
 8001ccc:	687b      	ldr	r3, [r7, #4]
 8001cce:	2201      	movs	r2, #1
 8001cd0:	f883 2041 	strb.w	r2, [r3, #65]	; 0x41
  TIM_CHANNEL_N_STATE_SET_ALL(htim, HAL_TIM_CHANNEL_STATE_READY);
 8001cd4:	687b      	ldr	r3, [r7, #4]
 8001cd6:	2201      	movs	r2, #1
 8001cd8:	f883 2042 	strb.w	r2, [r3, #66]	; 0x42
 8001cdc:	687b      	ldr	r3, [r7, #4]
 8001cde:	2201      	movs	r2, #1
 8001ce0:	f883 2043 	strb.w	r2, [r3, #67]	; 0x43
 8001ce4:	687b      	ldr	r3, [r7, #4]
 8001ce6:	2201      	movs	r2, #1
 8001ce8:	f883 2044 	strb.w	r2, [r3, #68]	; 0x44
 8001cec:	687b      	ldr	r3, [r7, #4]
 8001cee:	2201      	movs	r2, #1
 8001cf0:	f883 2045 	strb.w	r2, [r3, #69]	; 0x45

  /* Initialize the TIM state*/
  htim->State = HAL_TIM_STATE_READY;
 8001cf4:	687b      	ldr	r3, [r7, #4]
 8001cf6:	2201      	movs	r2, #1
 8001cf8:	f883 203d 	strb.w	r2, [r3, #61]	; 0x3d

  return HAL_OK;
 8001cfc:	2300      	movs	r3, #0
}
 8001cfe:	4618      	mov	r0, r3
 8001d00:	3708      	adds	r7, #8
 8001d02:	46bd      	mov	sp, r7
 8001d04:	bd80      	pop	{r7, pc}
	...

08001d08 <HAL_TIM_Base_Start_IT>:
  * @brief  Starts the TIM Base generation in interrupt mode.
  * @param  htim TIM Base handle
  * @retval HAL status
  */
HAL_StatusTypeDef HAL_TIM_Base_Start_IT(TIM_HandleTypeDef *htim)
{
 8001d08:	b480      	push	{r7}
 8001d0a:	b085      	sub	sp, #20
 8001d0c:	af00      	add	r7, sp, #0
 8001d0e:	6078      	str	r0, [r7, #4]

  /* Check the parameters */
  assert_param(IS_TIM_INSTANCE(htim->Instance));

  /* Check the TIM state */
  if (htim->State != HAL_TIM_STATE_READY)
 8001d10:	687b      	ldr	r3, [r7, #4]
 8001d12:	f893 303d 	ldrb.w	r3, [r3, #61]	; 0x3d
 8001d16:	b2db      	uxtb	r3, r3
 8001d18:	2b01      	cmp	r3, #1
 8001d1a:	d001      	beq.n	8001d20 <HAL_TIM_Base_Start_IT+0x18>
  {
    return HAL_ERROR;
 8001d1c:	2301      	movs	r3, #1
 8001d1e:	e035      	b.n	8001d8c <HAL_TIM_Base_Start_IT+0x84>
  }

  /* Set the TIM state */
  htim->State = HAL_TIM_STATE_BUSY;
 8001d20:	687b      	ldr	r3, [r7, #4]
 8001d22:	2202      	movs	r2, #2
 8001d24:	f883 203d 	strb.w	r2, [r3, #61]	; 0x3d

  /* Enable the TIM Update interrupt */
  __HAL_TIM_ENABLE_IT(htim, TIM_IT_UPDATE);
 8001d28:	687b      	ldr	r3, [r7, #4]
 8001d2a:	681b      	ldr	r3, [r3, #0]
 8001d2c:	68da      	ldr	r2, [r3, #12]
 8001d2e:	687b      	ldr	r3, [r7, #4]
 8001d30:	681b      	ldr	r3, [r3, #0]
 8001d32:	f042 0201 	orr.w	r2, r2, #1
 8001d36:	60da      	str	r2, [r3, #12]

  /* Enable the Peripheral, except in trigger mode where enable is automatically done with trigger */
  if (IS_TIM_SLAVE_INSTANCE(htim->Instance))
 8001d38:	687b      	ldr	r3, [r7, #4]
 8001d3a:	681b      	ldr	r3, [r3, #0]
 8001d3c:	4a16      	ldr	r2, [pc, #88]	; (8001d98 <HAL_TIM_Base_Start_IT+0x90>)
 8001d3e:	4293      	cmp	r3, r2
 8001d40:	d009      	beq.n	8001d56 <HAL_TIM_Base_Start_IT+0x4e>
 8001d42:	687b      	ldr	r3, [r7, #4]
 8001d44:	681b      	ldr	r3, [r3, #0]
 8001d46:	f1b3 4f80 	cmp.w	r3, #1073741824	; 0x40000000
 8001d4a:	d004      	beq.n	8001d56 <HAL_TIM_Base_Start_IT+0x4e>
 8001d4c:	687b      	ldr	r3, [r7, #4]
 8001d4e:	681b      	ldr	r3, [r3, #0]
 8001d50:	4a12      	ldr	r2, [pc, #72]	; (8001d9c <HAL_TIM_Base_Start_IT+0x94>)
 8001d52:	4293      	cmp	r3, r2
 8001d54:	d111      	bne.n	8001d7a <HAL_TIM_Base_Start_IT+0x72>
  {
    tmpsmcr = htim->Instance->SMCR & TIM_SMCR_SMS;
 8001d56:	687b      	ldr	r3, [r7, #4]
 8001d58:	681b      	ldr	r3, [r3, #0]
 8001d5a:	689b      	ldr	r3, [r3, #8]
 8001d5c:	f003 0307 	and.w	r3, r3, #7
 8001d60:	60fb      	str	r3, [r7, #12]
    if (!IS_TIM_SLAVEMODE_TRIGGER_ENABLED(tmpsmcr))
 8001d62:	68fb      	ldr	r3, [r7, #12]
 8001d64:	2b06      	cmp	r3, #6
 8001d66:	d010      	beq.n	8001d8a <HAL_TIM_Base_Start_IT+0x82>
    {
      __HAL_TIM_ENABLE(htim);
 8001d68:	687b      	ldr	r3, [r7, #4]
 8001d6a:	681b      	ldr	r3, [r3, #0]
 8001d6c:	681a      	ldr	r2, [r3, #0]
 8001d6e:	687b      	ldr	r3, [r7, #4]
 8001d70:	681b      	ldr	r3, [r3, #0]
 8001d72:	f042 0201 	orr.w	r2, r2, #1
 8001d76:	601a      	str	r2, [r3, #0]
    if (!IS_TIM_SLAVEMODE_TRIGGER_ENABLED(tmpsmcr))
 8001d78:	e007      	b.n	8001d8a <HAL_TIM_Base_Start_IT+0x82>
    }
  }
  else
  {
    __HAL_TIM_ENABLE(htim);
 8001d7a:	687b      	ldr	r3, [r7, #4]
 8001d7c:	681b      	ldr	r3, [r3, #0]
 8001d7e:	681a      	ldr	r2, [r3, #0]
 8001d80:	687b      	ldr	r3, [r7, #4]
 8001d82:	681b      	ldr	r3, [r3, #0]
 8001d84:	f042 0201 	orr.w	r2, r2, #1
 8001d88:	601a      	str	r2, [r3, #0]
  }

  /* Return function status */
  return HAL_OK;
 8001d8a:	2300      	movs	r3, #0
}
 8001d8c:	4618      	mov	r0, r3
 8001d8e:	3714      	adds	r7, #20
 8001d90:	46bd      	mov	sp, r7
 8001d92:	bc80      	pop	{r7}
 8001d94:	4770      	bx	lr
 8001d96:	bf00      	nop
 8001d98:	40012c00 	.word	0x40012c00
 8001d9c:	40000400 	.word	0x40000400

08001da0 <HAL_TIM_IRQHandler>:
  * @brief  This function handles TIM interrupts requests.
  * @param  htim TIM  handle
  * @retval None
  */
void HAL_TIM_IRQHandler(TIM_HandleTypeDef *htim)
{
 8001da0:	b580      	push	{r7, lr}
 8001da2:	b082      	sub	sp, #8
 8001da4:	af00      	add	r7, sp, #0
 8001da6:	6078      	str	r0, [r7, #4]
  /* Capture compare 1 event */
  if (__HAL_TIM_GET_FLAG(htim, TIM_FLAG_CC1) != RESET)
 8001da8:	687b      	ldr	r3, [r7, #4]
 8001daa:	681b      	ldr	r3, [r3, #0]
 8001dac:	691b      	ldr	r3, [r3, #16]
 8001dae:	f003 0302 	and.w	r3, r3, #2
 8001db2:	2b02      	cmp	r3, #2
 8001db4:	d122      	bne.n	8001dfc <HAL_TIM_IRQHandler+0x5c>
  {
    if (__HAL_TIM_GET_IT_SOURCE(htim, TIM_IT_CC1) != RESET)
 8001db6:	687b      	ldr	r3, [r7, #4]
 8001db8:	681b      	ldr	r3, [r3, #0]
 8001dba:	68db      	ldr	r3, [r3, #12]
 8001dbc:	f003 0302 	and.w	r3, r3, #2
 8001dc0:	2b02      	cmp	r3, #2
 8001dc2:	d11b      	bne.n	8001dfc <HAL_TIM_IRQHandler+0x5c>
    {
      {
        __HAL_TIM_CLEAR_IT(htim, TIM_IT_CC1);
 8001dc4:	687b      	ldr	r3, [r7, #4]
 8001dc6:	681b      	ldr	r3, [r3, #0]
 8001dc8:	f06f 0202 	mvn.w	r2, #2
 8001dcc:	611a      	str	r2, [r3, #16]
        htim->Channel = HAL_TIM_ACTIVE_CHANNEL_1;
 8001dce:	687b      	ldr	r3, [r7, #4]
 8001dd0:	2201      	movs	r2, #1
 8001dd2:	771a      	strb	r2, [r3, #28]

        /* Input capture event */
        if ((htim->Instance->CCMR1 & TIM_CCMR1_CC1S) != 0x00U)
 8001dd4:	687b      	ldr	r3, [r7, #4]
 8001dd6:	681b      	ldr	r3, [r3, #0]
 8001dd8:	699b      	ldr	r3, [r3, #24]
 8001dda:	f003 0303 	and.w	r3, r3, #3
 8001dde:	2b00      	cmp	r3, #0
 8001de0:	d003      	beq.n	8001dea <HAL_TIM_IRQHandler+0x4a>
        {
#if (USE_HAL_TIM_REGISTER_CALLBACKS == 1)
          htim->IC_CaptureCallback(htim);
#else
          HAL_TIM_IC_CaptureCallback(htim);
 8001de2:	6878      	ldr	r0, [r7, #4]
 8001de4:	f000 f9b4 	bl	8002150 <HAL_TIM_IC_CaptureCallback>
 8001de8:	e005      	b.n	8001df6 <HAL_TIM_IRQHandler+0x56>
        {
#if (USE_HAL_TIM_REGISTER_CALLBACKS == 1)
          htim->OC_DelayElapsedCallback(htim);
          htim->PWM_PulseFinishedCallback(htim);
#else
          HAL_TIM_OC_DelayElapsedCallback(htim);
 8001dea:	6878      	ldr	r0, [r7, #4]
 8001dec:	f000 f9a7 	bl	800213e <HAL_TIM_OC_DelayElapsedCallback>
          HAL_TIM_PWM_PulseFinishedCallback(htim);
 8001df0:	6878      	ldr	r0, [r7, #4]
 8001df2:	f000 f9b6 	bl	8002162 <HAL_TIM_PWM_PulseFinishedCallback>
#endif /* USE_HAL_TIM_REGISTER_CALLBACKS */
        }
        htim->Channel = HAL_TIM_ACTIVE_CHANNEL_CLEARED;
 8001df6:	687b      	ldr	r3, [r7, #4]
 8001df8:	2200      	movs	r2, #0
 8001dfa:	771a      	strb	r2, [r3, #28]
      }
    }
  }
  /* Capture compare 2 event */
  if (__HAL_TIM_GET_FLAG(htim, TIM_FLAG_CC2) != RESET)
 8001dfc:	687b      	ldr	r3, [r7, #4]
 8001dfe:	681b      	ldr	r3, [r3, #0]
 8001e00:	691b      	ldr	r3, [r3, #16]
 8001e02:	f003 0304 	and.w	r3, r3, #4
 8001e06:	2b04      	cmp	r3, #4
 8001e08:	d122      	bne.n	8001e50 <HAL_TIM_IRQHandler+0xb0>
  {
    if (__HAL_TIM_GET_IT_SOURCE(htim, TIM_IT_CC2) != RESET)
 8001e0a:	687b      	ldr	r3, [r7, #4]
 8001e0c:	681b      	ldr	r3, [r3, #0]
 8001e0e:	68db      	ldr	r3, [r3, #12]
 8001e10:	f003 0304 	and.w	r3, r3, #4
 8001e14:	2b04      	cmp	r3, #4
 8001e16:	d11b      	bne.n	8001e50 <HAL_TIM_IRQHandler+0xb0>
    {
      __HAL_TIM_CLEAR_IT(htim, TIM_IT_CC2);
 8001e18:	687b      	ldr	r3, [r7, #4]
 8001e1a:	681b      	ldr	r3, [r3, #0]
 8001e1c:	f06f 0204 	mvn.w	r2, #4
 8001e20:	611a      	str	r2, [r3, #16]
      htim->Channel = HAL_TIM_ACTIVE_CHANNEL_2;
 8001e22:	687b      	ldr	r3, [r7, #4]
 8001e24:	2202      	movs	r2, #2
 8001e26:	771a      	strb	r2, [r3, #28]
      /* Input capture event */
      if ((htim->Instance->CCMR1 & TIM_CCMR1_CC2S) != 0x00U)
 8001e28:	687b      	ldr	r3, [r7, #4]
 8001e2a:	681b      	ldr	r3, [r3, #0]
 8001e2c:	699b      	ldr	r3, [r3, #24]
 8001e2e:	f403 7340 	and.w	r3, r3, #768	; 0x300
 8001e32:	2b00      	cmp	r3, #0
 8001e34:	d003      	beq.n	8001e3e <HAL_TIM_IRQHandler+0x9e>
      {
#if (USE_HAL_TIM_REGISTER_CALLBACKS == 1)
        htim->IC_CaptureCallback(htim);
#else
        HAL_TIM_IC_CaptureCallback(htim);
 8001e36:	6878      	ldr	r0, [r7, #4]
 8001e38:	f000 f98a 	bl	8002150 <HAL_TIM_IC_CaptureCallback>
 8001e3c:	e005      	b.n	8001e4a <HAL_TIM_IRQHandler+0xaa>
      {
#if (USE_HAL_TIM_REGISTER_CALLBACKS == 1)
        htim->OC_DelayElapsedCallback(htim);
        htim->PWM_PulseFinishedCallback(htim);
#else
        HAL_TIM_OC_DelayElapsedCallback(htim);
 8001e3e:	6878      	ldr	r0, [r7, #4]
 8001e40:	f000 f97d 	bl	800213e <HAL_TIM_OC_DelayElapsedCallback>
        HAL_TIM_PWM_PulseFinishedCallback(htim);
 8001e44:	6878      	ldr	r0, [r7, #4]
 8001e46:	f000 f98c 	bl	8002162 <HAL_TIM_PWM_PulseFinishedCallback>
#endif /* USE_HAL_TIM_REGISTER_CALLBACKS */
      }
      htim->Channel = HAL_TIM_ACTIVE_CHANNEL_CLEARED;
 8001e4a:	687b      	ldr	r3, [r7, #4]
 8001e4c:	2200      	movs	r2, #0
 8001e4e:	771a      	strb	r2, [r3, #28]
    }
  }
  /* Capture compare 3 event */
  if (__HAL_TIM_GET_FLAG(htim, TIM_FLAG_CC3) != RESET)
 8001e50:	687b      	ldr	r3, [r7, #4]
 8001e52:	681b      	ldr	r3, [r3, #0]
 8001e54:	691b      	ldr	r3, [r3, #16]
 8001e56:	f003 0308 	and.w	r3, r3, #8
 8001e5a:	2b08      	cmp	r3, #8
 8001e5c:	d122      	bne.n	8001ea4 <HAL_TIM_IRQHandler+0x104>
  {
    if (__HAL_TIM_GET_IT_SOURCE(htim, TIM_IT_CC3) != RESET)
 8001e5e:	687b      	ldr	r3, [r7, #4]
 8001e60:	681b      	ldr	r3, [r3, #0]
 8001e62:	68db      	ldr	r3, [r3, #12]
 8001e64:	f003 0308 	and.w	r3, r3, #8
 8001e68:	2b08      	cmp	r3, #8
 8001e6a:	d11b      	bne.n	8001ea4 <HAL_TIM_IRQHandler+0x104>
    {
      __HAL_TIM_CLEAR_IT(htim, TIM_IT_CC3);
 8001e6c:	687b      	ldr	r3, [r7, #4]
 8001e6e:	681b      	ldr	r3, [r3, #0]
 8001e70:	f06f 0208 	mvn.w	r2, #8
 8001e74:	611a      	str	r2, [r3, #16]
      htim->Channel = HAL_TIM_ACTIVE_CHANNEL_3;
 8001e76:	687b      	ldr	r3, [r7, #4]
 8001e78:	2204      	movs	r2, #4
 8001e7a:	771a      	strb	r2, [r3, #28]
      /* Input capture event */
      if ((htim->Instance->CCMR2 & TIM_CCMR2_CC3S) != 0x00U)
 8001e7c:	687b      	ldr	r3, [r7, #4]
 8001e7e:	681b      	ldr	r3, [r3, #0]
 8001e80:	69db      	ldr	r3, [r3, #28]
 8001e82:	f003 0303 	and.w	r3, r3, #3
 8001e86:	2b00      	cmp	r3, #0
 8001e88:	d003      	beq.n	8001e92 <HAL_TIM_IRQHandler+0xf2>
      {
#if (USE_HAL_TIM_REGISTER_CALLBACKS == 1)
        htim->IC_CaptureCallback(htim);
#else
        HAL_TIM_IC_CaptureCallback(htim);
 8001e8a:	6878      	ldr	r0, [r7, #4]
 8001e8c:	f000 f960 	bl	8002150 <HAL_TIM_IC_CaptureCallback>
 8001e90:	e005      	b.n	8001e9e <HAL_TIM_IRQHandler+0xfe>
      {
#if (USE_HAL_TIM_REGISTER_CALLBACKS == 1)
        htim->OC_DelayElapsedCallback(htim);
        htim->PWM_PulseFinishedCallback(htim);
#else
        HAL_TIM_OC_DelayElapsedCallback(htim);
 8001e92:	6878      	ldr	r0, [r7, #4]
 8001e94:	f000 f953 	bl	800213e <HAL_TIM_OC_DelayElapsedCallback>
        HAL_TIM_PWM_PulseFinishedCallback(htim);
 8001e98:	6878      	ldr	r0, [r7, #4]
 8001e9a:	f000 f962 	bl	8002162 <HAL_TIM_PWM_PulseFinishedCallback>
#endif /* USE_HAL_TIM_REGISTER_CALLBACKS */
      }
      htim->Channel = HAL_TIM_ACTIVE_CHANNEL_CLEARED;
 8001e9e:	687b      	ldr	r3, [r7, #4]
 8001ea0:	2200      	movs	r2, #0
 8001ea2:	771a      	strb	r2, [r3, #28]
    }
  }
  /* Capture compare 4 event */
  if (__HAL_TIM_GET_FLAG(htim, TIM_FLAG_CC4) != RESET)
 8001ea4:	687b      	ldr	r3, [r7, #4]
 8001ea6:	681b      	ldr	r3, [r3, #0]
 8001ea8:	691b      	ldr	r3, [r3, #16]
 8001eaa:	f003 0310 	and.w	r3, r3, #16
 8001eae:	2b10      	cmp	r3, #16
 8001eb0:	d122      	bne.n	8001ef8 <HAL_TIM_IRQHandler+0x158>
  {
    if (__HAL_TIM_GET_IT_SOURCE(htim, TIM_IT_CC4) != RESET)
 8001eb2:	687b      	ldr	r3, [r7, #4]
 8001eb4:	681b      	ldr	r3, [r3, #0]
 8001eb6:	68db      	ldr	r3, [r3, #12]
 8001eb8:	f003 0310 	and.w	r3, r3, #16
 8001ebc:	2b10      	cmp	r3, #16
 8001ebe:	d11b      	bne.n	8001ef8 <HAL_TIM_IRQHandler+0x158>
    {
      __HAL_TIM_CLEAR_IT(htim, TIM_IT_CC4);
 8001ec0:	687b      	ldr	r3, [r7, #4]
 8001ec2:	681b      	ldr	r3, [r3, #0]
 8001ec4:	f06f 0210 	mvn.w	r2, #16
 8001ec8:	611a      	str	r2, [r3, #16]
      htim->Channel = HAL_TIM_ACTIVE_CHANNEL_4;
 8001eca:	687b      	ldr	r3, [r7, #4]
 8001ecc:	2208      	movs	r2, #8
 8001ece:	771a      	strb	r2, [r3, #28]
      /* Input capture event */
      if ((htim->Instance->CCMR2 & TIM_CCMR2_CC4S) != 0x00U)
 8001ed0:	687b      	ldr	r3, [r7, #4]
 8001ed2:	681b      	ldr	r3, [r3, #0]
 8001ed4:	69db      	ldr	r3, [r3, #28]
 8001ed6:	f403 7340 	and.w	r3, r3, #768	; 0x300
 8001eda:	2b00      	cmp	r3, #0
 8001edc:	d003      	beq.n	8001ee6 <HAL_TIM_IRQHandler+0x146>
      {
#if (USE_HAL_TIM_REGISTER_CALLBACKS == 1)
        htim->IC_CaptureCallback(htim);
#else
        HAL_TIM_IC_CaptureCallback(htim);
 8001ede:	6878      	ldr	r0, [r7, #4]
 8001ee0:	f000 f936 	bl	8002150 <HAL_TIM_IC_CaptureCallback>
 8001ee4:	e005      	b.n	8001ef2 <HAL_TIM_IRQHandler+0x152>
      {
#if (USE_HAL_TIM_REGISTER_CALLBACKS == 1)
        htim->OC_DelayElapsedCallback(htim);
        htim->PWM_PulseFinishedCallback(htim);
#else
        HAL_TIM_OC_DelayElapsedCallback(htim);
 8001ee6:	6878      	ldr	r0, [r7, #4]
 8001ee8:	f000 f929 	bl	800213e <HAL_TIM_OC_DelayElapsedCallback>
        HAL_TIM_PWM_PulseFinishedCallback(htim);
 8001eec:	6878      	ldr	r0, [r7, #4]
 8001eee:	f000 f938 	bl	8002162 <HAL_TIM_PWM_PulseFinishedCallback>
#endif /* USE_HAL_TIM_REGISTER_CALLBACKS */
      }
      htim->Channel = HAL_TIM_ACTIVE_CHANNEL_CLEARED;
 8001ef2:	687b      	ldr	r3, [r7, #4]
 8001ef4:	2200      	movs	r2, #0
 8001ef6:	771a      	strb	r2, [r3, #28]
    }
  }
  /* TIM Update event */
  if (__HAL_TIM_GET_FLAG(htim, TIM_FLAG_UPDATE) != RESET)
 8001ef8:	687b      	ldr	r3, [r7, #4]
 8001efa:	681b      	ldr	r3, [r3, #0]
 8001efc:	691b      	ldr	r3, [r3, #16]
 8001efe:	f003 0301 	and.w	r3, r3, #1
 8001f02:	2b01      	cmp	r3, #1
 8001f04:	d10e      	bne.n	8001f24 <HAL_TIM_IRQHandler+0x184>
  {
    if (__HAL_TIM_GET_IT_SOURCE(htim, TIM_IT_UPDATE) != RESET)
 8001f06:	687b      	ldr	r3, [r7, #4]
 8001f08:	681b      	ldr	r3, [r3, #0]
 8001f0a:	68db      	ldr	r3, [r3, #12]
 8001f0c:	f003 0301 	and.w	r3, r3, #1
 8001f10:	2b01      	cmp	r3, #1
 8001f12:	d107      	bne.n	8001f24 <HAL_TIM_IRQHandler+0x184>
    {
      __HAL_TIM_CLEAR_IT(htim, TIM_IT_UPDATE);
 8001f14:	687b      	ldr	r3, [r7, #4]
 8001f16:	681b      	ldr	r3, [r3, #0]
 8001f18:	f06f 0201 	mvn.w	r2, #1
 8001f1c:	611a      	str	r2, [r3, #16]
#if (USE_HAL_TIM_REGISTER_CALLBACKS == 1)
      htim->PeriodElapsedCallback(htim);
#else
      HAL_TIM_PeriodElapsedCallback(htim);
 8001f1e:	6878      	ldr	r0, [r7, #4]
 8001f20:	f7fe faba 	bl	8000498 <HAL_TIM_PeriodElapsedCallback>
#endif /* USE_HAL_TIM_REGISTER_CALLBACKS */
    }
  }
  /* TIM Break input event */
  if (__HAL_TIM_GET_FLAG(htim, TIM_FLAG_BREAK) != RESET)
 8001f24:	687b      	ldr	r3, [r7, #4]
 8001f26:	681b      	ldr	r3, [r3, #0]
 8001f28:	691b      	ldr	r3, [r3, #16]
 8001f2a:	f003 0380 	and.w	r3, r3, #128	; 0x80
 8001f2e:	2b80      	cmp	r3, #128	; 0x80
 8001f30:	d10e      	bne.n	8001f50 <HAL_TIM_IRQHandler+0x1b0>
  {
    if (__HAL_TIM_GET_IT_SOURCE(htim, TIM_IT_BREAK) != RESET)
 8001f32:	687b      	ldr	r3, [r7, #4]
 8001f34:	681b      	ldr	r3, [r3, #0]
 8001f36:	68db      	ldr	r3, [r3, #12]
 8001f38:	f003 0380 	and.w	r3, r3, #128	; 0x80
 8001f3c:	2b80      	cmp	r3, #128	; 0x80
 8001f3e:	d107      	bne.n	8001f50 <HAL_TIM_IRQHandler+0x1b0>
    {
      __HAL_TIM_CLEAR_IT(htim, TIM_IT_BREAK);
 8001f40:	687b      	ldr	r3, [r7, #4]
 8001f42:	681b      	ldr	r3, [r3, #0]
 8001f44:	f06f 0280 	mvn.w	r2, #128	; 0x80
 8001f48:	611a      	str	r2, [r3, #16]
#if (USE_HAL_TIM_REGISTER_CALLBACKS == 1)
      htim->BreakCallback(htim);
#else
      HAL_TIMEx_BreakCallback(htim);
 8001f4a:	6878      	ldr	r0, [r7, #4]
 8001f4c:	f000 fa6b 	bl	8002426 <HAL_TIMEx_BreakCallback>
#endif /* USE_HAL_TIM_REGISTER_CALLBACKS */
    }
  }
  /* TIM Trigger detection event */
  if (__HAL_TIM_GET_FLAG(htim, TIM_FLAG_TRIGGER) != RESET)
 8001f50:	687b      	ldr	r3, [r7, #4]
 8001f52:	681b      	ldr	r3, [r3, #0]
 8001f54:	691b      	ldr	r3, [r3, #16]
 8001f56:	f003 0340 	and.w	r3, r3, #64	; 0x40
 8001f5a:	2b40      	cmp	r3, #64	; 0x40
 8001f5c:	d10e      	bne.n	8001f7c <HAL_TIM_IRQHandler+0x1dc>
  {
    if (__HAL_TIM_GET_IT_SOURCE(htim, TIM_IT_TRIGGER) != RESET)
 8001f5e:	687b      	ldr	r3, [r7, #4]
 8001f60:	681b      	ldr	r3, [r3, #0]
 8001f62:	68db      	ldr	r3, [r3, #12]
 8001f64:	f003 0340 	and.w	r3, r3, #64	; 0x40
 8001f68:	2b40      	cmp	r3, #64	; 0x40
 8001f6a:	d107      	bne.n	8001f7c <HAL_TIM_IRQHandler+0x1dc>
    {
      __HAL_TIM_CLEAR_IT(htim, TIM_IT_TRIGGER);
 8001f6c:	687b      	ldr	r3, [r7, #4]
 8001f6e:	681b      	ldr	r3, [r3, #0]
 8001f70:	f06f 0240 	mvn.w	r2, #64	; 0x40
 8001f74:	611a      	str	r2, [r3, #16]
#if (USE_HAL_TIM_REGISTER_CALLBACKS == 1)
      htim->TriggerCallback(htim);
#else
      HAL_TIM_TriggerCallback(htim);
 8001f76:	6878      	ldr	r0, [r7, #4]
 8001f78:	f000 f8fc 	bl	8002174 <HAL_TIM_TriggerCallback>
#endif /* USE_HAL_TIM_REGISTER_CALLBACKS */
    }
  }
  /* TIM commutation event */
  if (__HAL_TIM_GET_FLAG(htim, TIM_FLAG_COM) != RESET)
 8001f7c:	687b      	ldr	r3, [r7, #4]
 8001f7e:	681b      	ldr	r3, [r3, #0]
 8001f80:	691b      	ldr	r3, [r3, #16]
 8001f82:	f003 0320 	and.w	r3, r3, #32
 8001f86:	2b20      	cmp	r3, #32
 8001f88:	d10e      	bne.n	8001fa8 <HAL_TIM_IRQHandler+0x208>
  {
    if (__HAL_TIM_GET_IT_SOURCE(htim, TIM_IT_COM) != RESET)
 8001f8a:	687b      	ldr	r3, [r7, #4]
 8001f8c:	681b      	ldr	r3, [r3, #0]
 8001f8e:	68db      	ldr	r3, [r3, #12]
 8001f90:	f003 0320 	and.w	r3, r3, #32
 8001f94:	2b20      	cmp	r3, #32
 8001f96:	d107      	bne.n	8001fa8 <HAL_TIM_IRQHandler+0x208>
    {
      __HAL_TIM_CLEAR_IT(htim, TIM_FLAG_COM);
 8001f98:	687b      	ldr	r3, [r7, #4]
 8001f9a:	681b      	ldr	r3, [r3, #0]
 8001f9c:	f06f 0220 	mvn.w	r2, #32
 8001fa0:	611a      	str	r2, [r3, #16]
#if (USE_HAL_TIM_REGISTER_CALLBACKS == 1)
      htim->CommutationCallback(htim);
#else
      HAL_TIMEx_CommutCallback(htim);
 8001fa2:	6878      	ldr	r0, [r7, #4]
 8001fa4:	f000 fa36 	bl	8002414 <HAL_TIMEx_CommutCallback>
#endif /* USE_HAL_TIM_REGISTER_CALLBACKS */
    }
  }
}
 8001fa8:	bf00      	nop
 8001faa:	3708      	adds	r7, #8
 8001fac:	46bd      	mov	sp, r7
 8001fae:	bd80      	pop	{r7, pc}

08001fb0 <HAL_TIM_ConfigClockSource>:
  * @param  sClockSourceConfig pointer to a TIM_ClockConfigTypeDef structure that
  *         contains the clock source information for the TIM peripheral.
  * @retval HAL status
  */
HAL_StatusTypeDef HAL_TIM_ConfigClockSource(TIM_HandleTypeDef *htim, const TIM_ClockConfigTypeDef *sClockSourceConfig)
{
 8001fb0:	b580      	push	{r7, lr}
 8001fb2:	b084      	sub	sp, #16
 8001fb4:	af00      	add	r7, sp, #0
 8001fb6:	6078      	str	r0, [r7, #4]
 8001fb8:	6039      	str	r1, [r7, #0]
  HAL_StatusTypeDef status = HAL_OK;
 8001fba:	2300      	movs	r3, #0
 8001fbc:	73fb      	strb	r3, [r7, #15]
  uint32_t tmpsmcr;

  /* Process Locked */
  __HAL_LOCK(htim);
 8001fbe:	687b      	ldr	r3, [r7, #4]
 8001fc0:	f893 303c 	ldrb.w	r3, [r3, #60]	; 0x3c
 8001fc4:	2b01      	cmp	r3, #1
 8001fc6:	d101      	bne.n	8001fcc <HAL_TIM_ConfigClockSource+0x1c>
 8001fc8:	2302      	movs	r3, #2
 8001fca:	e0b4      	b.n	8002136 <HAL_TIM_ConfigClockSource+0x186>
 8001fcc:	687b      	ldr	r3, [r7, #4]
 8001fce:	2201      	movs	r2, #1
 8001fd0:	f883 203c 	strb.w	r2, [r3, #60]	; 0x3c

  htim->State = HAL_TIM_STATE_BUSY;
 8001fd4:	687b      	ldr	r3, [r7, #4]
 8001fd6:	2202      	movs	r2, #2
 8001fd8:	f883 203d 	strb.w	r2, [r3, #61]	; 0x3d

  /* Check the parameters */
  assert_param(IS_TIM_CLOCKSOURCE(sClockSourceConfig->ClockSource));

  /* Reset the SMS, TS, ECE, ETPS and ETRF bits */
  tmpsmcr = htim->Instance->SMCR;
 8001fdc:	687b      	ldr	r3, [r7, #4]
 8001fde:	681b      	ldr	r3, [r3, #0]
 8001fe0:	689b      	ldr	r3, [r3, #8]
 8001fe2:	60bb      	str	r3, [r7, #8]
  tmpsmcr &= ~(TIM_SMCR_SMS | TIM_SMCR_TS);
 8001fe4:	68bb      	ldr	r3, [r7, #8]
 8001fe6:	f023 0377 	bic.w	r3, r3, #119	; 0x77
 8001fea:	60bb      	str	r3, [r7, #8]
  tmpsmcr &= ~(TIM_SMCR_ETF | TIM_SMCR_ETPS | TIM_SMCR_ECE | TIM_SMCR_ETP);
 8001fec:	68bb      	ldr	r3, [r7, #8]
 8001fee:	f423 437f 	bic.w	r3, r3, #65280	; 0xff00
 8001ff2:	60bb      	str	r3, [r7, #8]
  htim->Instance->SMCR = tmpsmcr;
 8001ff4:	687b      	ldr	r3, [r7, #4]
 8001ff6:	681b      	ldr	r3, [r3, #0]
 8001ff8:	68ba      	ldr	r2, [r7, #8]
 8001ffa:	609a      	str	r2, [r3, #8]

  switch (sClockSourceConfig->ClockSource)
 8001ffc:	683b      	ldr	r3, [r7, #0]
 8001ffe:	681b      	ldr	r3, [r3, #0]
 8002000:	f5b3 5f00 	cmp.w	r3, #8192	; 0x2000
 8002004:	d03e      	beq.n	8002084 <HAL_TIM_ConfigClockSource+0xd4>
 8002006:	f5b3 5f00 	cmp.w	r3, #8192	; 0x2000
 800200a:	f200 8087 	bhi.w	800211c <HAL_TIM_ConfigClockSource+0x16c>
 800200e:	f5b3 5f80 	cmp.w	r3, #4096	; 0x1000
 8002012:	f000 8086 	beq.w	8002122 <HAL_TIM_ConfigClockSource+0x172>
 8002016:	f5b3 5f80 	cmp.w	r3, #4096	; 0x1000
 800201a:	d87f      	bhi.n	800211c <HAL_TIM_ConfigClockSource+0x16c>
 800201c:	2b70      	cmp	r3, #112	; 0x70
 800201e:	d01a      	beq.n	8002056 <HAL_TIM_ConfigClockSource+0xa6>
 8002020:	2b70      	cmp	r3, #112	; 0x70
 8002022:	d87b      	bhi.n	800211c <HAL_TIM_ConfigClockSource+0x16c>
 8002024:	2b60      	cmp	r3, #96	; 0x60
 8002026:	d050      	beq.n	80020ca <HAL_TIM_ConfigClockSource+0x11a>
 8002028:	2b60      	cmp	r3, #96	; 0x60
 800202a:	d877      	bhi.n	800211c <HAL_TIM_ConfigClockSource+0x16c>
 800202c:	2b50      	cmp	r3, #80	; 0x50
 800202e:	d03c      	beq.n	80020aa <HAL_TIM_ConfigClockSource+0xfa>
 8002030:	2b50      	cmp	r3, #80	; 0x50
 8002032:	d873      	bhi.n	800211c <HAL_TIM_ConfigClockSource+0x16c>
 8002034:	2b40      	cmp	r3, #64	; 0x40
 8002036:	d058      	beq.n	80020ea <HAL_TIM_ConfigClockSource+0x13a>
 8002038:	2b40      	cmp	r3, #64	; 0x40
 800203a:	d86f      	bhi.n	800211c <HAL_TIM_ConfigClockSource+0x16c>
 800203c:	2b30      	cmp	r3, #48	; 0x30
 800203e:	d064      	beq.n	800210a <HAL_TIM_ConfigClockSource+0x15a>
 8002040:	2b30      	cmp	r3, #48	; 0x30
 8002042:	d86b      	bhi.n	800211c <HAL_TIM_ConfigClockSource+0x16c>
 8002044:	2b20      	cmp	r3, #32
 8002046:	d060      	beq.n	800210a <HAL_TIM_ConfigClockSource+0x15a>
 8002048:	2b20      	cmp	r3, #32
 800204a:	d867      	bhi.n	800211c <HAL_TIM_ConfigClockSource+0x16c>
 800204c:	2b00      	cmp	r3, #0
 800204e:	d05c      	beq.n	800210a <HAL_TIM_ConfigClockSource+0x15a>
 8002050:	2b10      	cmp	r3, #16
 8002052:	d05a      	beq.n	800210a <HAL_TIM_ConfigClockSource+0x15a>
 8002054:	e062      	b.n	800211c <HAL_TIM_ConfigClockSource+0x16c>
      assert_param(IS_TIM_CLOCKPRESCALER(sClockSourceConfig->ClockPrescaler));
      assert_param(IS_TIM_CLOCKPOLARITY(sClockSourceConfig->ClockPolarity));
      assert_param(IS_TIM_CLOCKFILTER(sClockSourceConfig->ClockFilter));

      /* Configure the ETR Clock source */
      TIM_ETR_SetConfig(htim->Instance,
 8002056:	687b      	ldr	r3, [r7, #4]
 8002058:	6818      	ldr	r0, [r3, #0]
 800205a:	683b      	ldr	r3, [r7, #0]
 800205c:	6899      	ldr	r1, [r3, #8]
 800205e:	683b      	ldr	r3, [r7, #0]
 8002060:	685a      	ldr	r2, [r3, #4]
 8002062:	683b      	ldr	r3, [r7, #0]
 8002064:	68db      	ldr	r3, [r3, #12]
 8002066:	f000 f95e 	bl	8002326 <TIM_ETR_SetConfig>
                        sClockSourceConfig->ClockPrescaler,
                        sClockSourceConfig->ClockPolarity,
                        sClockSourceConfig->ClockFilter);

      /* Select the External clock mode1 and the ETRF trigger */
      tmpsmcr = htim->Instance->SMCR;
 800206a:	687b      	ldr	r3, [r7, #4]
 800206c:	681b      	ldr	r3, [r3, #0]
 800206e:	689b      	ldr	r3, [r3, #8]
 8002070:	60bb      	str	r3, [r7, #8]
      tmpsmcr |= (TIM_SLAVEMODE_EXTERNAL1 | TIM_CLOCKSOURCE_ETRMODE1);
 8002072:	68bb      	ldr	r3, [r7, #8]
 8002074:	f043 0377 	orr.w	r3, r3, #119	; 0x77
 8002078:	60bb      	str	r3, [r7, #8]
      /* Write to TIMx SMCR */
      htim->Instance->SMCR = tmpsmcr;
 800207a:	687b      	ldr	r3, [r7, #4]
 800207c:	681b      	ldr	r3, [r3, #0]
 800207e:	68ba      	ldr	r2, [r7, #8]
 8002080:	609a      	str	r2, [r3, #8]
      break;
 8002082:	e04f      	b.n	8002124 <HAL_TIM_ConfigClockSource+0x174>
      assert_param(IS_TIM_CLOCKPRESCALER(sClockSourceConfig->ClockPrescaler));
      assert_param(IS_TIM_CLOCKPOLARITY(sClockSourceConfig->ClockPolarity));
      assert_param(IS_TIM_CLOCKFILTER(sClockSourceConfig->ClockFilter));

      /* Configure the ETR Clock source */
      TIM_ETR_SetConfig(htim->Instance,
 8002084:	687b      	ldr	r3, [r7, #4]
 8002086:	6818      	ldr	r0, [r3, #0]
 8002088:	683b      	ldr	r3, [r7, #0]
 800208a:	6899      	ldr	r1, [r3, #8]
 800208c:	683b      	ldr	r3, [r7, #0]
 800208e:	685a      	ldr	r2, [r3, #4]
 8002090:	683b      	ldr	r3, [r7, #0]
 8002092:	68db      	ldr	r3, [r3, #12]
 8002094:	f000 f947 	bl	8002326 <TIM_ETR_SetConfig>
                        sClockSourceConfig->ClockPrescaler,
                        sClockSourceConfig->ClockPolarity,
                        sClockSourceConfig->ClockFilter);
      /* Enable the External clock mode2 */
      htim->Instance->SMCR |= TIM_SMCR_ECE;
 8002098:	687b      	ldr	r3, [r7, #4]
 800209a:	681b      	ldr	r3, [r3, #0]
 800209c:	689a      	ldr	r2, [r3, #8]
 800209e:	687b      	ldr	r3, [r7, #4]
 80020a0:	681b      	ldr	r3, [r3, #0]
 80020a2:	f442 4280 	orr.w	r2, r2, #16384	; 0x4000
 80020a6:	609a      	str	r2, [r3, #8]
      break;
 80020a8:	e03c      	b.n	8002124 <HAL_TIM_ConfigClockSource+0x174>

      /* Check TI1 input conditioning related parameters */
      assert_param(IS_TIM_CLOCKPOLARITY(sClockSourceConfig->ClockPolarity));
      assert_param(IS_TIM_CLOCKFILTER(sClockSourceConfig->ClockFilter));

      TIM_TI1_ConfigInputStage(htim->Instance,
 80020aa:	687b      	ldr	r3, [r7, #4]
 80020ac:	6818      	ldr	r0, [r3, #0]
 80020ae:	683b      	ldr	r3, [r7, #0]
 80020b0:	6859      	ldr	r1, [r3, #4]
 80020b2:	683b      	ldr	r3, [r7, #0]
 80020b4:	68db      	ldr	r3, [r3, #12]
 80020b6:	461a      	mov	r2, r3
 80020b8:	f000 f8be 	bl	8002238 <TIM_TI1_ConfigInputStage>
                               sClockSourceConfig->ClockPolarity,
                               sClockSourceConfig->ClockFilter);
      TIM_ITRx_SetConfig(htim->Instance, TIM_CLOCKSOURCE_TI1);
 80020bc:	687b      	ldr	r3, [r7, #4]
 80020be:	681b      	ldr	r3, [r3, #0]
 80020c0:	2150      	movs	r1, #80	; 0x50
 80020c2:	4618      	mov	r0, r3
 80020c4:	f000 f915 	bl	80022f2 <TIM_ITRx_SetConfig>
      break;
 80020c8:	e02c      	b.n	8002124 <HAL_TIM_ConfigClockSource+0x174>

      /* Check TI2 input conditioning related parameters */
      assert_param(IS_TIM_CLOCKPOLARITY(sClockSourceConfig->ClockPolarity));
      assert_param(IS_TIM_CLOCKFILTER(sClockSourceConfig->ClockFilter));

      TIM_TI2_ConfigInputStage(htim->Instance,
 80020ca:	687b      	ldr	r3, [r7, #4]
 80020cc:	6818      	ldr	r0, [r3, #0]
 80020ce:	683b      	ldr	r3, [r7, #0]
 80020d0:	6859      	ldr	r1, [r3, #4]
 80020d2:	683b      	ldr	r3, [r7, #0]
 80020d4:	68db      	ldr	r3, [r3, #12]
 80020d6:	461a      	mov	r2, r3
 80020d8:	f000 f8dc 	bl	8002294 <TIM_TI2_ConfigInputStage>
                               sClockSourceConfig->ClockPolarity,
                               sClockSourceConfig->ClockFilter);
      TIM_ITRx_SetConfig(htim->Instance, TIM_CLOCKSOURCE_TI2);
 80020dc:	687b      	ldr	r3, [r7, #4]
 80020de:	681b      	ldr	r3, [r3, #0]
 80020e0:	2160      	movs	r1, #96	; 0x60
 80020e2:	4618      	mov	r0, r3
 80020e4:	f000 f905 	bl	80022f2 <TIM_ITRx_SetConfig>
      break;
 80020e8:	e01c      	b.n	8002124 <HAL_TIM_ConfigClockSource+0x174>

      /* Check TI1 input conditioning related parameters */
      assert_param(IS_TIM_CLOCKPOLARITY(sClockSourceConfig->ClockPolarity));
      assert_param(IS_TIM_CLOCKFILTER(sClockSourceConfig->ClockFilter));

      TIM_TI1_ConfigInputStage(htim->Instance,
 80020ea:	687b      	ldr	r3, [r7, #4]
 80020ec:	6818      	ldr	r0, [r3, #0]
 80020ee:	683b      	ldr	r3, [r7, #0]
 80020f0:	6859      	ldr	r1, [r3, #4]
 80020f2:	683b      	ldr	r3, [r7, #0]
 80020f4:	68db      	ldr	r3, [r3, #12]
 80020f6:	461a      	mov	r2, r3
 80020f8:	f000 f89e 	bl	8002238 <TIM_TI1_ConfigInputStage>
                               sClockSourceConfig->ClockPolarity,
                               sClockSourceConfig->ClockFilter);
      TIM_ITRx_SetConfig(htim->Instance, TIM_CLOCKSOURCE_TI1ED);
 80020fc:	687b      	ldr	r3, [r7, #4]
 80020fe:	681b      	ldr	r3, [r3, #0]
 8002100:	2140      	movs	r1, #64	; 0x40
 8002102:	4618      	mov	r0, r3
 8002104:	f000 f8f5 	bl	80022f2 <TIM_ITRx_SetConfig>
      break;
 8002108:	e00c      	b.n	8002124 <HAL_TIM_ConfigClockSource+0x174>
    case TIM_CLOCKSOURCE_ITR3:
    {
      /* Check whether or not the timer instance supports internal trigger input */
      assert_param(IS_TIM_CLOCKSOURCE_ITRX_INSTANCE(htim->Instance));

      TIM_ITRx_SetConfig(htim->Instance, sClockSourceConfig->ClockSource);
 800210a:	687b      	ldr	r3, [r7, #4]
 800210c:	681a      	ldr	r2, [r3, #0]
 800210e:	683b      	ldr	r3, [r7, #0]
 8002110:	681b      	ldr	r3, [r3, #0]
 8002112:	4619      	mov	r1, r3
 8002114:	4610      	mov	r0, r2
 8002116:	f000 f8ec 	bl	80022f2 <TIM_ITRx_SetConfig>
      break;
 800211a:	e003      	b.n	8002124 <HAL_TIM_ConfigClockSource+0x174>
    }

    default:
      status = HAL_ERROR;
 800211c:	2301      	movs	r3, #1
 800211e:	73fb      	strb	r3, [r7, #15]
      break;
 8002120:	e000      	b.n	8002124 <HAL_TIM_ConfigClockSource+0x174>
      break;
 8002122:	bf00      	nop
  }
  htim->State = HAL_TIM_STATE_READY;
 8002124:	687b      	ldr	r3, [r7, #4]
 8002126:	2201      	movs	r2, #1
 8002128:	f883 203d 	strb.w	r2, [r3, #61]	; 0x3d

  __HAL_UNLOCK(htim);
 800212c:	687b      	ldr	r3, [r7, #4]
 800212e:	2200      	movs	r2, #0
 8002130:	f883 203c 	strb.w	r2, [r3, #60]	; 0x3c

  return status;
 8002134:	7bfb      	ldrb	r3, [r7, #15]
}
 8002136:	4618      	mov	r0, r3
 8002138:	3710      	adds	r7, #16
 800213a:	46bd      	mov	sp, r7
 800213c:	bd80      	pop	{r7, pc}

0800213e <HAL_TIM_OC_DelayElapsedCallback>:
  * @brief  Output Compare callback in non-blocking mode
  * @param  htim TIM OC handle
  * @retval None
  */
__weak void HAL_TIM_OC_DelayElapsedCallback(TIM_HandleTypeDef *htim)
{
 800213e:	b480      	push	{r7}
 8002140:	b083      	sub	sp, #12
 8002142:	af00      	add	r7, sp, #0
 8002144:	6078      	str	r0, [r7, #4]
  UNUSED(htim);

  /* NOTE : This function should not be modified, when the callback is needed,
            the HAL_TIM_OC_DelayElapsedCallback could be implemented in the user file
   */
}
 8002146:	bf00      	nop
 8002148:	370c      	adds	r7, #12
 800214a:	46bd      	mov	sp, r7
 800214c:	bc80      	pop	{r7}
 800214e:	4770      	bx	lr

08002150 <HAL_TIM_IC_CaptureCallback>:
  * @brief  Input Capture callback in non-blocking mode
  * @param  htim TIM IC handle
  * @retval None
  */
__weak void HAL_TIM_IC_CaptureCallback(TIM_HandleTypeDef *htim)
{
 8002150:	b480      	push	{r7}
 8002152:	b083      	sub	sp, #12
 8002154:	af00      	add	r7, sp, #0
 8002156:	6078      	str	r0, [r7, #4]
  UNUSED(htim);

  /* NOTE : This function should not be modified, when the callback is needed,
            the HAL_TIM_IC_CaptureCallback could be implemented in the user file
   */
}
 8002158:	bf00      	nop
 800215a:	370c      	adds	r7, #12
 800215c:	46bd      	mov	sp, r7
 800215e:	bc80      	pop	{r7}
 8002160:	4770      	bx	lr

08002162 <HAL_TIM_PWM_PulseFinishedCallback>:
  * @brief  PWM Pulse finished callback in non-blocking mode
  * @param  htim TIM handle
  * @retval None
  */
__weak void HAL_TIM_PWM_PulseFinishedCallback(TIM_HandleTypeDef *htim)
{
 8002162:	b480      	push	{r7}
 8002164:	b083      	sub	sp, #12
 8002166:	af00      	add	r7, sp, #0
 8002168:	6078      	str	r0, [r7, #4]
  UNUSED(htim);

  /* NOTE : This function should not be modified, when the callback is needed,
            the HAL_TIM_PWM_PulseFinishedCallback could be implemented in the user file
   */
}
 800216a:	bf00      	nop
 800216c:	370c      	adds	r7, #12
 800216e:	46bd      	mov	sp, r7
 8002170:	bc80      	pop	{r7}
 8002172:	4770      	bx	lr

08002174 <HAL_TIM_TriggerCallback>:
  * @brief  Hall Trigger detection callback in non-blocking mode
  * @param  htim TIM handle
  * @retval None
  */
__weak void HAL_TIM_TriggerCallback(TIM_HandleTypeDef *htim)
{
 8002174:	b480      	push	{r7}
 8002176:	b083      	sub	sp, #12
 8002178:	af00      	add	r7, sp, #0
 800217a:	6078      	str	r0, [r7, #4]
  UNUSED(htim);

  /* NOTE : This function should not be modified, when the callback is needed,
            the HAL_TIM_TriggerCallback could be implemented in the user file
   */
}
 800217c:	bf00      	nop
 800217e:	370c      	adds	r7, #12
 8002180:	46bd      	mov	sp, r7
 8002182:	bc80      	pop	{r7}
 8002184:	4770      	bx	lr
	...

08002188 <TIM_Base_SetConfig>:
  * @param  TIMx TIM peripheral
  * @param  Structure TIM Base configuration structure
  * @retval None
  */
void TIM_Base_SetConfig(TIM_TypeDef *TIMx, const TIM_Base_InitTypeDef *Structure)
{
 8002188:	b480      	push	{r7}
 800218a:	b085      	sub	sp, #20
 800218c:	af00      	add	r7, sp, #0
 800218e:	6078      	str	r0, [r7, #4]
 8002190:	6039      	str	r1, [r7, #0]
  uint32_t tmpcr1;
  tmpcr1 = TIMx->CR1;
 8002192:	687b      	ldr	r3, [r7, #4]
 8002194:	681b      	ldr	r3, [r3, #0]
 8002196:	60fb      	str	r3, [r7, #12]

  /* Set TIM Time Base Unit parameters ---------------------------------------*/
  if (IS_TIM_COUNTER_MODE_SELECT_INSTANCE(TIMx))
 8002198:	687b      	ldr	r3, [r7, #4]
 800219a:	4a25      	ldr	r2, [pc, #148]	; (8002230 <TIM_Base_SetConfig+0xa8>)
 800219c:	4293      	cmp	r3, r2
 800219e:	d007      	beq.n	80021b0 <TIM_Base_SetConfig+0x28>
 80021a0:	687b      	ldr	r3, [r7, #4]
 80021a2:	f1b3 4f80 	cmp.w	r3, #1073741824	; 0x40000000
 80021a6:	d003      	beq.n	80021b0 <TIM_Base_SetConfig+0x28>
 80021a8:	687b      	ldr	r3, [r7, #4]
 80021aa:	4a22      	ldr	r2, [pc, #136]	; (8002234 <TIM_Base_SetConfig+0xac>)
 80021ac:	4293      	cmp	r3, r2
 80021ae:	d108      	bne.n	80021c2 <TIM_Base_SetConfig+0x3a>
  {
    /* Select the Counter Mode */
    tmpcr1 &= ~(TIM_CR1_DIR | TIM_CR1_CMS);
 80021b0:	68fb      	ldr	r3, [r7, #12]
 80021b2:	f023 0370 	bic.w	r3, r3, #112	; 0x70
 80021b6:	60fb      	str	r3, [r7, #12]
    tmpcr1 |= Structure->CounterMode;
 80021b8:	683b      	ldr	r3, [r7, #0]
 80021ba:	685b      	ldr	r3, [r3, #4]
 80021bc:	68fa      	ldr	r2, [r7, #12]
 80021be:	4313      	orrs	r3, r2
 80021c0:	60fb      	str	r3, [r7, #12]
  }

  if (IS_TIM_CLOCK_DIVISION_INSTANCE(TIMx))
 80021c2:	687b      	ldr	r3, [r7, #4]
 80021c4:	4a1a      	ldr	r2, [pc, #104]	; (8002230 <TIM_Base_SetConfig+0xa8>)
 80021c6:	4293      	cmp	r3, r2
 80021c8:	d007      	beq.n	80021da <TIM_Base_SetConfig+0x52>
 80021ca:	687b      	ldr	r3, [r7, #4]
 80021cc:	f1b3 4f80 	cmp.w	r3, #1073741824	; 0x40000000
 80021d0:	d003      	beq.n	80021da <TIM_Base_SetConfig+0x52>
 80021d2:	687b      	ldr	r3, [r7, #4]
 80021d4:	4a17      	ldr	r2, [pc, #92]	; (8002234 <TIM_Base_SetConfig+0xac>)
 80021d6:	4293      	cmp	r3, r2
 80021d8:	d108      	bne.n	80021ec <TIM_Base_SetConfig+0x64>
  {
    /* Set the clock division */
    tmpcr1 &= ~TIM_CR1_CKD;
 80021da:	68fb      	ldr	r3, [r7, #12]
 80021dc:	f423 7340 	bic.w	r3, r3, #768	; 0x300
 80021e0:	60fb      	str	r3, [r7, #12]
    tmpcr1 |= (uint32_t)Structure->ClockDivision;
 80021e2:	683b      	ldr	r3, [r7, #0]
 80021e4:	68db      	ldr	r3, [r3, #12]
 80021e6:	68fa      	ldr	r2, [r7, #12]
 80021e8:	4313      	orrs	r3, r2
 80021ea:	60fb      	str	r3, [r7, #12]
  }

  /* Set the auto-reload preload */
  MODIFY_REG(tmpcr1, TIM_CR1_ARPE, Structure->AutoReloadPreload);
 80021ec:	68fb      	ldr	r3, [r7, #12]
 80021ee:	f023 0280 	bic.w	r2, r3, #128	; 0x80
 80021f2:	683b      	ldr	r3, [r7, #0]
 80021f4:	695b      	ldr	r3, [r3, #20]
 80021f6:	4313      	orrs	r3, r2
 80021f8:	60fb      	str	r3, [r7, #12]

  TIMx->CR1 = tmpcr1;
 80021fa:	687b      	ldr	r3, [r7, #4]
 80021fc:	68fa      	ldr	r2, [r7, #12]
 80021fe:	601a      	str	r2, [r3, #0]

  /* Set the Autoreload value */
  TIMx->ARR = (uint32_t)Structure->Period ;
 8002200:	683b      	ldr	r3, [r7, #0]
 8002202:	689a      	ldr	r2, [r3, #8]
 8002204:	687b      	ldr	r3, [r7, #4]
 8002206:	62da      	str	r2, [r3, #44]	; 0x2c

  /* Set the Prescaler value */
  TIMx->PSC = Structure->Prescaler;
 8002208:	683b      	ldr	r3, [r7, #0]
 800220a:	681a      	ldr	r2, [r3, #0]
 800220c:	687b      	ldr	r3, [r7, #4]
 800220e:	629a      	str	r2, [r3, #40]	; 0x28

  if (IS_TIM_REPETITION_COUNTER_INSTANCE(TIMx))
 8002210:	687b      	ldr	r3, [r7, #4]
 8002212:	4a07      	ldr	r2, [pc, #28]	; (8002230 <TIM_Base_SetConfig+0xa8>)
 8002214:	4293      	cmp	r3, r2
 8002216:	d103      	bne.n	8002220 <TIM_Base_SetConfig+0x98>
  {
    /* Set the Repetition Counter value */
    TIMx->RCR = Structure->RepetitionCounter;
 8002218:	683b      	ldr	r3, [r7, #0]
 800221a:	691a      	ldr	r2, [r3, #16]
 800221c:	687b      	ldr	r3, [r7, #4]
 800221e:	631a      	str	r2, [r3, #48]	; 0x30
  }

  /* Generate an update event to reload the Prescaler
     and the repetition counter (only for advanced timer) value immediately */
  TIMx->EGR = TIM_EGR_UG;
 8002220:	687b      	ldr	r3, [r7, #4]
 8002222:	2201      	movs	r2, #1
 8002224:	615a      	str	r2, [r3, #20]
}
 8002226:	bf00      	nop
 8002228:	3714      	adds	r7, #20
 800222a:	46bd      	mov	sp, r7
 800222c:	bc80      	pop	{r7}
 800222e:	4770      	bx	lr
 8002230:	40012c00 	.word	0x40012c00
 8002234:	40000400 	.word	0x40000400

08002238 <TIM_TI1_ConfigInputStage>:
  * @param  TIM_ICFilter Specifies the Input Capture Filter.
  *          This parameter must be a value between 0x00 and 0x0F.
  * @retval None
  */
static void TIM_TI1_ConfigInputStage(TIM_TypeDef *TIMx, uint32_t TIM_ICPolarity, uint32_t TIM_ICFilter)
{
 8002238:	b480      	push	{r7}
 800223a:	b087      	sub	sp, #28
 800223c:	af00      	add	r7, sp, #0
 800223e:	60f8      	str	r0, [r7, #12]
 8002240:	60b9      	str	r1, [r7, #8]
 8002242:	607a      	str	r2, [r7, #4]
  uint32_t tmpccmr1;
  uint32_t tmpccer;

  /* Disable the Channel 1: Reset the CC1E Bit */
  tmpccer = TIMx->CCER;
 8002244:	68fb      	ldr	r3, [r7, #12]
 8002246:	6a1b      	ldr	r3, [r3, #32]
 8002248:	617b      	str	r3, [r7, #20]
  TIMx->CCER &= ~TIM_CCER_CC1E;
 800224a:	68fb      	ldr	r3, [r7, #12]
 800224c:	6a1b      	ldr	r3, [r3, #32]
 800224e:	f023 0201 	bic.w	r2, r3, #1
 8002252:	68fb      	ldr	r3, [r7, #12]
 8002254:	621a      	str	r2, [r3, #32]
  tmpccmr1 = TIMx->CCMR1;
 8002256:	68fb      	ldr	r3, [r7, #12]
 8002258:	699b      	ldr	r3, [r3, #24]
 800225a:	613b      	str	r3, [r7, #16]

  /* Set the filter */
  tmpccmr1 &= ~TIM_CCMR1_IC1F;
 800225c:	693b      	ldr	r3, [r7, #16]
 800225e:	f023 03f0 	bic.w	r3, r3, #240	; 0xf0
 8002262:	613b      	str	r3, [r7, #16]
  tmpccmr1 |= (TIM_ICFilter << 4U);
 8002264:	687b      	ldr	r3, [r7, #4]
 8002266:	011b      	lsls	r3, r3, #4
 8002268:	693a      	ldr	r2, [r7, #16]
 800226a:	4313      	orrs	r3, r2
 800226c:	613b      	str	r3, [r7, #16]

  /* Select the Polarity and set the CC1E Bit */
  tmpccer &= ~(TIM_CCER_CC1P | TIM_CCER_CC1NP);
 800226e:	697b      	ldr	r3, [r7, #20]
 8002270:	f023 030a 	bic.w	r3, r3, #10
 8002274:	617b      	str	r3, [r7, #20]
  tmpccer |= TIM_ICPolarity;
 8002276:	697a      	ldr	r2, [r7, #20]
 8002278:	68bb      	ldr	r3, [r7, #8]
 800227a:	4313      	orrs	r3, r2
 800227c:	617b      	str	r3, [r7, #20]

  /* Write to TIMx CCMR1 and CCER registers */
  TIMx->CCMR1 = tmpccmr1;
 800227e:	68fb      	ldr	r3, [r7, #12]
 8002280:	693a      	ldr	r2, [r7, #16]
 8002282:	619a      	str	r2, [r3, #24]
  TIMx->CCER = tmpccer;
 8002284:	68fb      	ldr	r3, [r7, #12]
 8002286:	697a      	ldr	r2, [r7, #20]
 8002288:	621a      	str	r2, [r3, #32]
}
 800228a:	bf00      	nop
 800228c:	371c      	adds	r7, #28
 800228e:	46bd      	mov	sp, r7
 8002290:	bc80      	pop	{r7}
 8002292:	4770      	bx	lr

08002294 <TIM_TI2_ConfigInputStage>:
  * @param  TIM_ICFilter Specifies the Input Capture Filter.
  *          This parameter must be a value between 0x00 and 0x0F.
  * @retval None
  */
static void TIM_TI2_ConfigInputStage(TIM_TypeDef *TIMx, uint32_t TIM_ICPolarity, uint32_t TIM_ICFilter)
{
 8002294:	b480      	push	{r7}
 8002296:	b087      	sub	sp, #28
 8002298:	af00      	add	r7, sp, #0
 800229a:	60f8      	str	r0, [r7, #12]
 800229c:	60b9      	str	r1, [r7, #8]
 800229e:	607a      	str	r2, [r7, #4]
  uint32_t tmpccmr1;
  uint32_t tmpccer;

  /* Disable the Channel 2: Reset the CC2E Bit */
  tmpccer = TIMx->CCER;
 80022a0:	68fb      	ldr	r3, [r7, #12]
 80022a2:	6a1b      	ldr	r3, [r3, #32]
 80022a4:	617b      	str	r3, [r7, #20]
  TIMx->CCER &= ~TIM_CCER_CC2E;
 80022a6:	68fb      	ldr	r3, [r7, #12]
 80022a8:	6a1b      	ldr	r3, [r3, #32]
 80022aa:	f023 0210 	bic.w	r2, r3, #16
 80022ae:	68fb      	ldr	r3, [r7, #12]
 80022b0:	621a      	str	r2, [r3, #32]
  tmpccmr1 = TIMx->CCMR1;
 80022b2:	68fb      	ldr	r3, [r7, #12]
 80022b4:	699b      	ldr	r3, [r3, #24]
 80022b6:	613b      	str	r3, [r7, #16]

  /* Set the filter */
  tmpccmr1 &= ~TIM_CCMR1_IC2F;
 80022b8:	693b      	ldr	r3, [r7, #16]
 80022ba:	f423 4370 	bic.w	r3, r3, #61440	; 0xf000
 80022be:	613b      	str	r3, [r7, #16]
  tmpccmr1 |= (TIM_ICFilter << 12U);
 80022c0:	687b      	ldr	r3, [r7, #4]
 80022c2:	031b      	lsls	r3, r3, #12
 80022c4:	693a      	ldr	r2, [r7, #16]
 80022c6:	4313      	orrs	r3, r2
 80022c8:	613b      	str	r3, [r7, #16]

  /* Select the Polarity and set the CC2E Bit */
  tmpccer &= ~(TIM_CCER_CC2P | TIM_CCER_CC2NP);
 80022ca:	697b      	ldr	r3, [r7, #20]
 80022cc:	f023 03a0 	bic.w	r3, r3, #160	; 0xa0
 80022d0:	617b      	str	r3, [r7, #20]
  tmpccer |= (TIM_ICPolarity << 4U);
 80022d2:	68bb      	ldr	r3, [r7, #8]
 80022d4:	011b      	lsls	r3, r3, #4
 80022d6:	697a      	ldr	r2, [r7, #20]
 80022d8:	4313      	orrs	r3, r2
 80022da:	617b      	str	r3, [r7, #20]

  /* Write to TIMx CCMR1 and CCER registers */
  TIMx->CCMR1 = tmpccmr1 ;
 80022dc:	68fb      	ldr	r3, [r7, #12]
 80022de:	693a      	ldr	r2, [r7, #16]
 80022e0:	619a      	str	r2, [r3, #24]
  TIMx->CCER = tmpccer;
 80022e2:	68fb      	ldr	r3, [r7, #12]
 80022e4:	697a      	ldr	r2, [r7, #20]
 80022e6:	621a      	str	r2, [r3, #32]
}
 80022e8:	bf00      	nop
 80022ea:	371c      	adds	r7, #28
 80022ec:	46bd      	mov	sp, r7
 80022ee:	bc80      	pop	{r7}
 80022f0:	4770      	bx	lr

080022f2 <TIM_ITRx_SetConfig>:
  *            @arg TIM_TS_TI2FP2: Filtered Timer Input 2
  *            @arg TIM_TS_ETRF: External Trigger input
  * @retval None
  */
static void TIM_ITRx_SetConfig(TIM_TypeDef *TIMx, uint32_t InputTriggerSource)
{
 80022f2:	b480      	push	{r7}
 80022f4:	b085      	sub	sp, #20
 80022f6:	af00      	add	r7, sp, #0
 80022f8:	6078      	str	r0, [r7, #4]
 80022fa:	6039      	str	r1, [r7, #0]
  uint32_t tmpsmcr;

  /* Get the TIMx SMCR register value */
  tmpsmcr = TIMx->SMCR;
 80022fc:	687b      	ldr	r3, [r7, #4]
 80022fe:	689b      	ldr	r3, [r3, #8]
 8002300:	60fb      	str	r3, [r7, #12]
  /* Reset the TS Bits */
  tmpsmcr &= ~TIM_SMCR_TS;
 8002302:	68fb      	ldr	r3, [r7, #12]
 8002304:	f023 0370 	bic.w	r3, r3, #112	; 0x70
 8002308:	60fb      	str	r3, [r7, #12]
  /* Set the Input Trigger source and the slave mode*/
  tmpsmcr |= (InputTriggerSource | TIM_SLAVEMODE_EXTERNAL1);
 800230a:	683a      	ldr	r2, [r7, #0]
 800230c:	68fb      	ldr	r3, [r7, #12]
 800230e:	4313      	orrs	r3, r2
 8002310:	f043 0307 	orr.w	r3, r3, #7
 8002314:	60fb      	str	r3, [r7, #12]
  /* Write to TIMx SMCR */
  TIMx->SMCR = tmpsmcr;
 8002316:	687b      	ldr	r3, [r7, #4]
 8002318:	68fa      	ldr	r2, [r7, #12]
 800231a:	609a      	str	r2, [r3, #8]
}
 800231c:	bf00      	nop
 800231e:	3714      	adds	r7, #20
 8002320:	46bd      	mov	sp, r7
 8002322:	bc80      	pop	{r7}
 8002324:	4770      	bx	lr

08002326 <TIM_ETR_SetConfig>:
  *          This parameter must be a value between 0x00 and 0x0F
  * @retval None
  */
void TIM_ETR_SetConfig(TIM_TypeDef *TIMx, uint32_t TIM_ExtTRGPrescaler,
                       uint32_t TIM_ExtTRGPolarity, uint32_t ExtTRGFilter)
{
 8002326:	b480      	push	{r7}
 8002328:	b087      	sub	sp, #28
 800232a:	af00      	add	r7, sp, #0
 800232c:	60f8      	str	r0, [r7, #12]
 800232e:	60b9      	str	r1, [r7, #8]
 8002330:	607a      	str	r2, [r7, #4]
 8002332:	603b      	str	r3, [r7, #0]
  uint32_t tmpsmcr;

  tmpsmcr = TIMx->SMCR;
 8002334:	68fb      	ldr	r3, [r7, #12]
 8002336:	689b      	ldr	r3, [r3, #8]
 8002338:	617b      	str	r3, [r7, #20]

  /* Reset the ETR Bits */
  tmpsmcr &= ~(TIM_SMCR_ETF | TIM_SMCR_ETPS | TIM_SMCR_ECE | TIM_SMCR_ETP);
 800233a:	697b      	ldr	r3, [r7, #20]
 800233c:	f423 437f 	bic.w	r3, r3, #65280	; 0xff00
 8002340:	617b      	str	r3, [r7, #20]

  /* Set the Prescaler, the Filter value and the Polarity */
  tmpsmcr |= (uint32_t)(TIM_ExtTRGPrescaler | (TIM_ExtTRGPolarity | (ExtTRGFilter << 8U)));
 8002342:	683b      	ldr	r3, [r7, #0]
 8002344:	021a      	lsls	r2, r3, #8
 8002346:	687b      	ldr	r3, [r7, #4]
 8002348:	431a      	orrs	r2, r3
 800234a:	68bb      	ldr	r3, [r7, #8]
 800234c:	4313      	orrs	r3, r2
 800234e:	697a      	ldr	r2, [r7, #20]
 8002350:	4313      	orrs	r3, r2
 8002352:	617b      	str	r3, [r7, #20]

  /* Write to TIMx SMCR */
  TIMx->SMCR = tmpsmcr;
 8002354:	68fb      	ldr	r3, [r7, #12]
 8002356:	697a      	ldr	r2, [r7, #20]
 8002358:	609a      	str	r2, [r3, #8]
}
 800235a:	bf00      	nop
 800235c:	371c      	adds	r7, #28
 800235e:	46bd      	mov	sp, r7
 8002360:	bc80      	pop	{r7}
 8002362:	4770      	bx	lr

08002364 <HAL_TIMEx_MasterConfigSynchronization>:
  *         mode.
  * @retval HAL status
  */
HAL_StatusTypeDef HAL_TIMEx_MasterConfigSynchronization(TIM_HandleTypeDef *htim,
                                                        const TIM_MasterConfigTypeDef *sMasterConfig)
{
 8002364:	b480      	push	{r7}
 8002366:	b085      	sub	sp, #20
 8002368:	af00      	add	r7, sp, #0
 800236a:	6078      	str	r0, [r7, #4]
 800236c:	6039      	str	r1, [r7, #0]
  assert_param(IS_TIM_MASTER_INSTANCE(htim->Instance));
  assert_param(IS_TIM_TRGO_SOURCE(sMasterConfig->MasterOutputTrigger));
  assert_param(IS_TIM_MSM_STATE(sMasterConfig->MasterSlaveMode));

  /* Check input state */
  __HAL_LOCK(htim);
 800236e:	687b      	ldr	r3, [r7, #4]
 8002370:	f893 303c 	ldrb.w	r3, [r3, #60]	; 0x3c
 8002374:	2b01      	cmp	r3, #1
 8002376:	d101      	bne.n	800237c <HAL_TIMEx_MasterConfigSynchronization+0x18>
 8002378:	2302      	movs	r3, #2
 800237a:	e041      	b.n	8002400 <HAL_TIMEx_MasterConfigSynchronization+0x9c>
 800237c:	687b      	ldr	r3, [r7, #4]
 800237e:	2201      	movs	r2, #1
 8002380:	f883 203c 	strb.w	r2, [r3, #60]	; 0x3c

  /* Change the handler state */
  htim->State = HAL_TIM_STATE_BUSY;
 8002384:	687b      	ldr	r3, [r7, #4]
 8002386:	2202      	movs	r2, #2
 8002388:	f883 203d 	strb.w	r2, [r3, #61]	; 0x3d

  /* Get the TIMx CR2 register value */
  tmpcr2 = htim->Instance->CR2;
 800238c:	687b      	ldr	r3, [r7, #4]
 800238e:	681b      	ldr	r3, [r3, #0]
 8002390:	685b      	ldr	r3, [r3, #4]
 8002392:	60fb      	str	r3, [r7, #12]

  /* Get the TIMx SMCR register value */
  tmpsmcr = htim->Instance->SMCR;
 8002394:	687b      	ldr	r3, [r7, #4]
 8002396:	681b      	ldr	r3, [r3, #0]
 8002398:	689b      	ldr	r3, [r3, #8]
 800239a:	60bb      	str	r3, [r7, #8]

  /* Reset the MMS Bits */
  tmpcr2 &= ~TIM_CR2_MMS;
 800239c:	68fb      	ldr	r3, [r7, #12]
 800239e:	f023 0370 	bic.w	r3, r3, #112	; 0x70
 80023a2:	60fb      	str	r3, [r7, #12]
  /* Select the TRGO source */
  tmpcr2 |=  sMasterConfig->MasterOutputTrigger;
 80023a4:	683b      	ldr	r3, [r7, #0]
 80023a6:	681b      	ldr	r3, [r3, #0]
 80023a8:	68fa      	ldr	r2, [r7, #12]
 80023aa:	4313      	orrs	r3, r2
 80023ac:	60fb      	str	r3, [r7, #12]

  /* Update TIMx CR2 */
  htim->Instance->CR2 = tmpcr2;
 80023ae:	687b      	ldr	r3, [r7, #4]
 80023b0:	681b      	ldr	r3, [r3, #0]
 80023b2:	68fa      	ldr	r2, [r7, #12]
 80023b4:	605a      	str	r2, [r3, #4]

  if (IS_TIM_SLAVE_INSTANCE(htim->Instance))
 80023b6:	687b      	ldr	r3, [r7, #4]
 80023b8:	681b      	ldr	r3, [r3, #0]
 80023ba:	4a14      	ldr	r2, [pc, #80]	; (800240c <HAL_TIMEx_MasterConfigSynchronization+0xa8>)
 80023bc:	4293      	cmp	r3, r2
 80023be:	d009      	beq.n	80023d4 <HAL_TIMEx_MasterConfigSynchronization+0x70>
 80023c0:	687b      	ldr	r3, [r7, #4]
 80023c2:	681b      	ldr	r3, [r3, #0]
 80023c4:	f1b3 4f80 	cmp.w	r3, #1073741824	; 0x40000000
 80023c8:	d004      	beq.n	80023d4 <HAL_TIMEx_MasterConfigSynchronization+0x70>
 80023ca:	687b      	ldr	r3, [r7, #4]
 80023cc:	681b      	ldr	r3, [r3, #0]
 80023ce:	4a10      	ldr	r2, [pc, #64]	; (8002410 <HAL_TIMEx_MasterConfigSynchronization+0xac>)
 80023d0:	4293      	cmp	r3, r2
 80023d2:	d10c      	bne.n	80023ee <HAL_TIMEx_MasterConfigSynchronization+0x8a>
  {
    /* Reset the MSM Bit */
    tmpsmcr &= ~TIM_SMCR_MSM;
 80023d4:	68bb      	ldr	r3, [r7, #8]
 80023d6:	f023 0380 	bic.w	r3, r3, #128	; 0x80
 80023da:	60bb      	str	r3, [r7, #8]
    /* Set master mode */
    tmpsmcr |= sMasterConfig->MasterSlaveMode;
 80023dc:	683b      	ldr	r3, [r7, #0]
 80023de:	685b      	ldr	r3, [r3, #4]
 80023e0:	68ba      	ldr	r2, [r7, #8]
 80023e2:	4313      	orrs	r3, r2
 80023e4:	60bb      	str	r3, [r7, #8]

    /* Update TIMx SMCR */
    htim->Instance->SMCR = tmpsmcr;
 80023e6:	687b      	ldr	r3, [r7, #4]
 80023e8:	681b      	ldr	r3, [r3, #0]
 80023ea:	68ba      	ldr	r2, [r7, #8]
 80023ec:	609a      	str	r2, [r3, #8]
  }

  /* Change the htim state */
  htim->State = HAL_TIM_STATE_READY;
 80023ee:	687b      	ldr	r3, [r7, #4]
 80023f0:	2201      	movs	r2, #1
 80023f2:	f883 203d 	strb.w	r2, [r3, #61]	; 0x3d

  __HAL_UNLOCK(htim);
 80023f6:	687b      	ldr	r3, [r7, #4]
 80023f8:	2200      	movs	r2, #0
 80023fa:	f883 203c 	strb.w	r2, [r3, #60]	; 0x3c

  return HAL_OK;
 80023fe:	2300      	movs	r3, #0
}
 8002400:	4618      	mov	r0, r3
 8002402:	3714      	adds	r7, #20
 8002404:	46bd      	mov	sp, r7
 8002406:	bc80      	pop	{r7}
 8002408:	4770      	bx	lr
 800240a:	bf00      	nop
 800240c:	40012c00 	.word	0x40012c00
 8002410:	40000400 	.word	0x40000400

08002414 <HAL_TIMEx_CommutCallback>:
  * @brief  Hall commutation changed callback in non-blocking mode
  * @param  htim TIM handle
  * @retval None
  */
__weak void HAL_TIMEx_CommutCallback(TIM_HandleTypeDef *htim)
{
 8002414:	b480      	push	{r7}
 8002416:	b083      	sub	sp, #12
 8002418:	af00      	add	r7, sp, #0
 800241a:	6078      	str	r0, [r7, #4]
  UNUSED(htim);

  /* NOTE : This function should not be modified, when the callback is needed,
            the HAL_TIMEx_CommutCallback could be implemented in the user file
   */
}
 800241c:	bf00      	nop
 800241e:	370c      	adds	r7, #12
 8002420:	46bd      	mov	sp, r7
 8002422:	bc80      	pop	{r7}
 8002424:	4770      	bx	lr

08002426 <HAL_TIMEx_BreakCallback>:
  * @brief  Hall Break detection callback in non-blocking mode
  * @param  htim TIM handle
  * @retval None
  */
__weak void HAL_TIMEx_BreakCallback(TIM_HandleTypeDef *htim)
{
 8002426:	b480      	push	{r7}
 8002428:	b083      	sub	sp, #12
 800242a:	af00      	add	r7, sp, #0
 800242c:	6078      	str	r0, [r7, #4]
  UNUSED(htim);

  /* NOTE : This function should not be modified, when the callback is needed,
            the HAL_TIMEx_BreakCallback could be implemented in the user file
   */
}
 800242e:	bf00      	nop
 8002430:	370c      	adds	r7, #12
 8002432:	46bd      	mov	sp, r7
 8002434:	bc80      	pop	{r7}
 8002436:	4770      	bx	lr

08002438 <HAL_UART_Init>:
  * @param  huart  Pointer to a UART_HandleTypeDef structure that contains
  *                the configuration information for the specified UART module.
  * @retval HAL status
  */
HAL_StatusTypeDef HAL_UART_Init(UART_HandleTypeDef *huart)
{
 8002438:	b580      	push	{r7, lr}
 800243a:	b082      	sub	sp, #8
 800243c:	af00      	add	r7, sp, #0
 800243e:	6078      	str	r0, [r7, #4]
  /* Check the UART handle allocation */
  if (huart == NULL)
 8002440:	687b      	ldr	r3, [r7, #4]
 8002442:	2b00      	cmp	r3, #0
 8002444:	d101      	bne.n	800244a <HAL_UART_Init+0x12>
  {
    return HAL_ERROR;
 8002446:	2301      	movs	r3, #1
 8002448:	e042      	b.n	80024d0 <HAL_UART_Init+0x98>
  assert_param(IS_UART_WORD_LENGTH(huart->Init.WordLength));
#if defined(USART_CR1_OVER8)
  assert_param(IS_UART_OVERSAMPLING(huart->Init.OverSampling));
#endif /* USART_CR1_OVER8 */

  if (huart->gState == HAL_UART_STATE_RESET)
 800244a:	687b      	ldr	r3, [r7, #4]
 800244c:	f893 3041 	ldrb.w	r3, [r3, #65]	; 0x41
 8002450:	b2db      	uxtb	r3, r3
 8002452:	2b00      	cmp	r3, #0
 8002454:	d106      	bne.n	8002464 <HAL_UART_Init+0x2c>
  {
    /* Allocate lock resource and initialize it */
    huart->Lock = HAL_UNLOCKED;
 8002456:	687b      	ldr	r3, [r7, #4]
 8002458:	2200      	movs	r2, #0
 800245a:	f883 2040 	strb.w	r2, [r3, #64]	; 0x40

    /* Init the low level hardware */
    huart->MspInitCallback(huart);
#else
    /* Init the low level hardware : GPIO, CLOCK */
    HAL_UART_MspInit(huart);
 800245e:	6878      	ldr	r0, [r7, #4]
 8002460:	f7fe faa8 	bl	80009b4 <HAL_UART_MspInit>
#endif /* (USE_HAL_UART_REGISTER_CALLBACKS) */
  }

  huart->gState = HAL_UART_STATE_BUSY;
 8002464:	687b      	ldr	r3, [r7, #4]
 8002466:	2224      	movs	r2, #36	; 0x24
 8002468:	f883 2041 	strb.w	r2, [r3, #65]	; 0x41

  /* Disable the peripheral */
  __HAL_UART_DISABLE(huart);
 800246c:	687b      	ldr	r3, [r7, #4]
 800246e:	681b      	ldr	r3, [r3, #0]
 8002470:	68da      	ldr	r2, [r3, #12]
 8002472:	687b      	ldr	r3, [r7, #4]
 8002474:	681b      	ldr	r3, [r3, #0]
 8002476:	f422 5200 	bic.w	r2, r2, #8192	; 0x2000
 800247a:	60da      	str	r2, [r3, #12]

  /* Set the UART Communication parameters */
  UART_SetConfig(huart);
 800247c:	6878      	ldr	r0, [r7, #4]
 800247e:	f000 fd71 	bl	8002f64 <UART_SetConfig>

  /* In asynchronous mode, the following bits must be kept cleared:
     - LINEN and CLKEN bits in the USART_CR2 register,
     - SCEN, HDSEL and IREN  bits in the USART_CR3 register.*/
  CLEAR_BIT(huart->Instance->CR2, (USART_CR2_LINEN | USART_CR2_CLKEN));
 8002482:	687b      	ldr	r3, [r7, #4]
 8002484:	681b      	ldr	r3, [r3, #0]
 8002486:	691a      	ldr	r2, [r3, #16]
 8002488:	687b      	ldr	r3, [r7, #4]
 800248a:	681b      	ldr	r3, [r3, #0]
 800248c:	f422 4290 	bic.w	r2, r2, #18432	; 0x4800
 8002490:	611a      	str	r2, [r3, #16]
  CLEAR_BIT(huart->Instance->CR3, (USART_CR3_SCEN | USART_CR3_HDSEL | USART_CR3_IREN));
 8002492:	687b      	ldr	r3, [r7, #4]
 8002494:	681b      	ldr	r3, [r3, #0]
 8002496:	695a      	ldr	r2, [r3, #20]
 8002498:	687b      	ldr	r3, [r7, #4]
 800249a:	681b      	ldr	r3, [r3, #0]
 800249c:	f022 022a 	bic.w	r2, r2, #42	; 0x2a
 80024a0:	615a      	str	r2, [r3, #20]

  /* Enable the peripheral */
  __HAL_UART_ENABLE(huart);
 80024a2:	687b      	ldr	r3, [r7, #4]
 80024a4:	681b      	ldr	r3, [r3, #0]
 80024a6:	68da      	ldr	r2, [r3, #12]
 80024a8:	687b      	ldr	r3, [r7, #4]
 80024aa:	681b      	ldr	r3, [r3, #0]
 80024ac:	f442 5200 	orr.w	r2, r2, #8192	; 0x2000
 80024b0:	60da      	str	r2, [r3, #12]

  /* Initialize the UART state */
  huart->ErrorCode = HAL_UART_ERROR_NONE;
 80024b2:	687b      	ldr	r3, [r7, #4]
 80024b4:	2200      	movs	r2, #0
 80024b6:	645a      	str	r2, [r3, #68]	; 0x44
  huart->gState = HAL_UART_STATE_READY;
 80024b8:	687b      	ldr	r3, [r7, #4]
 80024ba:	2220      	movs	r2, #32
 80024bc:	f883 2041 	strb.w	r2, [r3, #65]	; 0x41
  huart->RxState = HAL_UART_STATE_READY;
 80024c0:	687b      	ldr	r3, [r7, #4]
 80024c2:	2220      	movs	r2, #32
 80024c4:	f883 2042 	strb.w	r2, [r3, #66]	; 0x42
  huart->RxEventType = HAL_UART_RXEVENT_TC;
 80024c8:	687b      	ldr	r3, [r7, #4]
 80024ca:	2200      	movs	r2, #0
 80024cc:	635a      	str	r2, [r3, #52]	; 0x34

  return HAL_OK;
 80024ce:	2300      	movs	r3, #0
}
 80024d0:	4618      	mov	r0, r3
 80024d2:	3708      	adds	r7, #8
 80024d4:	46bd      	mov	sp, r7
 80024d6:	bd80      	pop	{r7, pc}

080024d8 <HAL_UART_Transmit>:
  * @param  Size  Amount of data elements (u8 or u16) to be sent
  * @param  Timeout Timeout duration
  * @retval HAL status
  */
HAL_StatusTypeDef HAL_UART_Transmit(UART_HandleTypeDef *huart, const uint8_t *pData, uint16_t Size, uint32_t Timeout)
{
 80024d8:	b580      	push	{r7, lr}
 80024da:	b08a      	sub	sp, #40	; 0x28
 80024dc:	af02      	add	r7, sp, #8
 80024de:	60f8      	str	r0, [r7, #12]
 80024e0:	60b9      	str	r1, [r7, #8]
 80024e2:	603b      	str	r3, [r7, #0]
 80024e4:	4613      	mov	r3, r2
 80024e6:	80fb      	strh	r3, [r7, #6]
  const uint8_t  *pdata8bits;
  const uint16_t *pdata16bits;
  uint32_t tickstart = 0U;
 80024e8:	2300      	movs	r3, #0
 80024ea:	617b      	str	r3, [r7, #20]

  /* Check that a Tx process is not already ongoing */
  if (huart->gState == HAL_UART_STATE_READY)
 80024ec:	68fb      	ldr	r3, [r7, #12]
 80024ee:	f893 3041 	ldrb.w	r3, [r3, #65]	; 0x41
 80024f2:	b2db      	uxtb	r3, r3
 80024f4:	2b20      	cmp	r3, #32
 80024f6:	d16d      	bne.n	80025d4 <HAL_UART_Transmit+0xfc>
  {
    if ((pData == NULL) || (Size == 0U))
 80024f8:	68bb      	ldr	r3, [r7, #8]
 80024fa:	2b00      	cmp	r3, #0
 80024fc:	d002      	beq.n	8002504 <HAL_UART_Transmit+0x2c>
 80024fe:	88fb      	ldrh	r3, [r7, #6]
 8002500:	2b00      	cmp	r3, #0
 8002502:	d101      	bne.n	8002508 <HAL_UART_Transmit+0x30>
    {
      return  HAL_ERROR;
 8002504:	2301      	movs	r3, #1
 8002506:	e066      	b.n	80025d6 <HAL_UART_Transmit+0xfe>
    }

    huart->ErrorCode = HAL_UART_ERROR_NONE;
 8002508:	68fb      	ldr	r3, [r7, #12]
 800250a:	2200      	movs	r2, #0
 800250c:	645a      	str	r2, [r3, #68]	; 0x44
    huart->gState = HAL_UART_STATE_BUSY_TX;
 800250e:	68fb      	ldr	r3, [r7, #12]
 8002510:	2221      	movs	r2, #33	; 0x21
 8002512:	f883 2041 	strb.w	r2, [r3, #65]	; 0x41

    /* Init tickstart for timeout management */
    tickstart = HAL_GetTick();
 8002516:	f7fe fb97 	bl	8000c48 <HAL_GetTick>
 800251a:	6178      	str	r0, [r7, #20]

    huart->TxXferSize = Size;
 800251c:	68fb      	ldr	r3, [r7, #12]
 800251e:	88fa      	ldrh	r2, [r7, #6]
 8002520:	849a      	strh	r2, [r3, #36]	; 0x24
    huart->TxXferCount = Size;
 8002522:	68fb      	ldr	r3, [r7, #12]
 8002524:	88fa      	ldrh	r2, [r7, #6]
 8002526:	84da      	strh	r2, [r3, #38]	; 0x26

    /* In case of 9bits/No Parity transfer, pData needs to be handled as a uint16_t pointer */
    if ((huart->Init.WordLength == UART_WORDLENGTH_9B) && (huart->Init.Parity == UART_PARITY_NONE))
 8002528:	68fb      	ldr	r3, [r7, #12]
 800252a:	689b      	ldr	r3, [r3, #8]
 800252c:	f5b3 5f80 	cmp.w	r3, #4096	; 0x1000
 8002530:	d108      	bne.n	8002544 <HAL_UART_Transmit+0x6c>
 8002532:	68fb      	ldr	r3, [r7, #12]
 8002534:	691b      	ldr	r3, [r3, #16]
 8002536:	2b00      	cmp	r3, #0
 8002538:	d104      	bne.n	8002544 <HAL_UART_Transmit+0x6c>
    {
      pdata8bits  = NULL;
 800253a:	2300      	movs	r3, #0
 800253c:	61fb      	str	r3, [r7, #28]
      pdata16bits = (const uint16_t *) pData;
 800253e:	68bb      	ldr	r3, [r7, #8]
 8002540:	61bb      	str	r3, [r7, #24]
 8002542:	e003      	b.n	800254c <HAL_UART_Transmit+0x74>
    }
    else
    {
      pdata8bits  = pData;
 8002544:	68bb      	ldr	r3, [r7, #8]
 8002546:	61fb      	str	r3, [r7, #28]
      pdata16bits = NULL;
 8002548:	2300      	movs	r3, #0
 800254a:	61bb      	str	r3, [r7, #24]
    }

    while (huart->TxXferCount > 0U)
 800254c:	e02a      	b.n	80025a4 <HAL_UART_Transmit+0xcc>
    {
      if (UART_WaitOnFlagUntilTimeout(huart, UART_FLAG_TXE, RESET, tickstart, Timeout) != HAL_OK)
 800254e:	683b      	ldr	r3, [r7, #0]
 8002550:	9300      	str	r3, [sp, #0]
 8002552:	697b      	ldr	r3, [r7, #20]
 8002554:	2200      	movs	r2, #0
 8002556:	2180      	movs	r1, #128	; 0x80
 8002558:	68f8      	ldr	r0, [r7, #12]
 800255a:	f000 faf9 	bl	8002b50 <UART_WaitOnFlagUntilTimeout>
 800255e:	4603      	mov	r3, r0
 8002560:	2b00      	cmp	r3, #0
 8002562:	d001      	beq.n	8002568 <HAL_UART_Transmit+0x90>
      {
        return HAL_TIMEOUT;
 8002564:	2303      	movs	r3, #3
 8002566:	e036      	b.n	80025d6 <HAL_UART_Transmit+0xfe>
      }
      if (pdata8bits == NULL)
 8002568:	69fb      	ldr	r3, [r7, #28]
 800256a:	2b00      	cmp	r3, #0
 800256c:	d10b      	bne.n	8002586 <HAL_UART_Transmit+0xae>
      {
        huart->Instance->DR = (uint16_t)(*pdata16bits & 0x01FFU);
 800256e:	69bb      	ldr	r3, [r7, #24]
 8002570:	881b      	ldrh	r3, [r3, #0]
 8002572:	461a      	mov	r2, r3
 8002574:	68fb      	ldr	r3, [r7, #12]
 8002576:	681b      	ldr	r3, [r3, #0]
 8002578:	f3c2 0208 	ubfx	r2, r2, #0, #9
 800257c:	605a      	str	r2, [r3, #4]
        pdata16bits++;
 800257e:	69bb      	ldr	r3, [r7, #24]
 8002580:	3302      	adds	r3, #2
 8002582:	61bb      	str	r3, [r7, #24]
 8002584:	e007      	b.n	8002596 <HAL_UART_Transmit+0xbe>
      }
      else
      {
        huart->Instance->DR = (uint8_t)(*pdata8bits & 0xFFU);
 8002586:	69fb      	ldr	r3, [r7, #28]
 8002588:	781a      	ldrb	r2, [r3, #0]
 800258a:	68fb      	ldr	r3, [r7, #12]
 800258c:	681b      	ldr	r3, [r3, #0]
 800258e:	605a      	str	r2, [r3, #4]
        pdata8bits++;
 8002590:	69fb      	ldr	r3, [r7, #28]
 8002592:	3301      	adds	r3, #1
 8002594:	61fb      	str	r3, [r7, #28]
      }
      huart->TxXferCount--;
 8002596:	68fb      	ldr	r3, [r7, #12]
 8002598:	8cdb      	ldrh	r3, [r3, #38]	; 0x26
 800259a:	b29b      	uxth	r3, r3
 800259c:	3b01      	subs	r3, #1
 800259e:	b29a      	uxth	r2, r3
 80025a0:	68fb      	ldr	r3, [r7, #12]
 80025a2:	84da      	strh	r2, [r3, #38]	; 0x26
    while (huart->TxXferCount > 0U)
 80025a4:	68fb      	ldr	r3, [r7, #12]
 80025a6:	8cdb      	ldrh	r3, [r3, #38]	; 0x26
 80025a8:	b29b      	uxth	r3, r3
 80025aa:	2b00      	cmp	r3, #0
 80025ac:	d1cf      	bne.n	800254e <HAL_UART_Transmit+0x76>
    }

    if (UART_WaitOnFlagUntilTimeout(huart, UART_FLAG_TC, RESET, tickstart, Timeout) != HAL_OK)
 80025ae:	683b      	ldr	r3, [r7, #0]
 80025b0:	9300      	str	r3, [sp, #0]
 80025b2:	697b      	ldr	r3, [r7, #20]
 80025b4:	2200      	movs	r2, #0
 80025b6:	2140      	movs	r1, #64	; 0x40
 80025b8:	68f8      	ldr	r0, [r7, #12]
 80025ba:	f000 fac9 	bl	8002b50 <UART_WaitOnFlagUntilTimeout>
 80025be:	4603      	mov	r3, r0
 80025c0:	2b00      	cmp	r3, #0
 80025c2:	d001      	beq.n	80025c8 <HAL_UART_Transmit+0xf0>
    {
      return HAL_TIMEOUT;
 80025c4:	2303      	movs	r3, #3
 80025c6:	e006      	b.n	80025d6 <HAL_UART_Transmit+0xfe>
    }

    /* At end of Tx process, restore huart->gState to Ready */
    huart->gState = HAL_UART_STATE_READY;
 80025c8:	68fb      	ldr	r3, [r7, #12]
 80025ca:	2220      	movs	r2, #32
 80025cc:	f883 2041 	strb.w	r2, [r3, #65]	; 0x41

    return HAL_OK;
 80025d0:	2300      	movs	r3, #0
 80025d2:	e000      	b.n	80025d6 <HAL_UART_Transmit+0xfe>
  }
  else
  {
    return HAL_BUSY;
 80025d4:	2302      	movs	r3, #2
  }
}
 80025d6:	4618      	mov	r0, r3
 80025d8:	3720      	adds	r7, #32
 80025da:	46bd      	mov	sp, r7
 80025dc:	bd80      	pop	{r7, pc}
	...

080025e0 <HAL_UART_IRQHandler>:
  * @param  huart  Pointer to a UART_HandleTypeDef structure that contains
  *                the configuration information for the specified UART module.
  * @retval None
  */
void HAL_UART_IRQHandler(UART_HandleTypeDef *huart)
{
 80025e0:	b580      	push	{r7, lr}
 80025e2:	b0ba      	sub	sp, #232	; 0xe8
 80025e4:	af00      	add	r7, sp, #0
 80025e6:	6078      	str	r0, [r7, #4]
  uint32_t isrflags   = READ_REG(huart->Instance->SR);
 80025e8:	687b      	ldr	r3, [r7, #4]
 80025ea:	681b      	ldr	r3, [r3, #0]
 80025ec:	681b      	ldr	r3, [r3, #0]
 80025ee:	f8c7 30e4 	str.w	r3, [r7, #228]	; 0xe4
  uint32_t cr1its     = READ_REG(huart->Instance->CR1);
 80025f2:	687b      	ldr	r3, [r7, #4]
 80025f4:	681b      	ldr	r3, [r3, #0]
 80025f6:	68db      	ldr	r3, [r3, #12]
 80025f8:	f8c7 30e0 	str.w	r3, [r7, #224]	; 0xe0
  uint32_t cr3its     = READ_REG(huart->Instance->CR3);
 80025fc:	687b      	ldr	r3, [r7, #4]
 80025fe:	681b      	ldr	r3, [r3, #0]
 8002600:	695b      	ldr	r3, [r3, #20]
 8002602:	f8c7 30dc 	str.w	r3, [r7, #220]	; 0xdc
  uint32_t errorflags = 0x00U;
 8002606:	2300      	movs	r3, #0
 8002608:	f8c7 30d8 	str.w	r3, [r7, #216]	; 0xd8
  uint32_t dmarequest = 0x00U;
 800260c:	2300      	movs	r3, #0
 800260e:	f8c7 30d4 	str.w	r3, [r7, #212]	; 0xd4

  /* If no error occurs */
  errorflags = (isrflags & (uint32_t)(USART_SR_PE | USART_SR_FE | USART_SR_ORE | USART_SR_NE));
 8002612:	f8d7 30e4 	ldr.w	r3, [r7, #228]	; 0xe4
 8002616:	f003 030f 	and.w	r3, r3, #15
 800261a:	f8c7 30d8 	str.w	r3, [r7, #216]	; 0xd8
  if (errorflags == RESET)
 800261e:	f8d7 30d8 	ldr.w	r3, [r7, #216]	; 0xd8
 8002622:	2b00      	cmp	r3, #0
 8002624:	d10f      	bne.n	8002646 <HAL_UART_IRQHandler+0x66>
  {
    /* UART in mode Receiver -------------------------------------------------*/
    if (((isrflags & USART_SR_RXNE) != RESET) && ((cr1its & USART_CR1_RXNEIE) != RESET))
 8002626:	f8d7 30e4 	ldr.w	r3, [r7, #228]	; 0xe4
 800262a:	f003 0320 	and.w	r3, r3, #32
 800262e:	2b00      	cmp	r3, #0
 8002630:	d009      	beq.n	8002646 <HAL_UART_IRQHandler+0x66>
 8002632:	f8d7 30e0 	ldr.w	r3, [r7, #224]	; 0xe0
 8002636:	f003 0320 	and.w	r3, r3, #32
 800263a:	2b00      	cmp	r3, #0
 800263c:	d003      	beq.n	8002646 <HAL_UART_IRQHandler+0x66>
    {
      UART_Receive_IT(huart);
 800263e:	6878      	ldr	r0, [r7, #4]
 8002640:	f000 fbd1 	bl	8002de6 <UART_Receive_IT>
      return;
 8002644:	e25b      	b.n	8002afe <HAL_UART_IRQHandler+0x51e>
    }
  }

  /* If some errors occur */
  if ((errorflags != RESET) && (((cr3its & USART_CR3_EIE) != RESET)
 8002646:	f8d7 30d8 	ldr.w	r3, [r7, #216]	; 0xd8
 800264a:	2b00      	cmp	r3, #0
 800264c:	f000 80de 	beq.w	800280c <HAL_UART_IRQHandler+0x22c>
 8002650:	f8d7 30dc 	ldr.w	r3, [r7, #220]	; 0xdc
 8002654:	f003 0301 	and.w	r3, r3, #1
 8002658:	2b00      	cmp	r3, #0
 800265a:	d106      	bne.n	800266a <HAL_UART_IRQHandler+0x8a>
                                || ((cr1its & (USART_CR1_RXNEIE | USART_CR1_PEIE)) != RESET)))
 800265c:	f8d7 30e0 	ldr.w	r3, [r7, #224]	; 0xe0
 8002660:	f403 7390 	and.w	r3, r3, #288	; 0x120
 8002664:	2b00      	cmp	r3, #0
 8002666:	f000 80d1 	beq.w	800280c <HAL_UART_IRQHandler+0x22c>
  {
    /* UART parity error interrupt occurred ----------------------------------*/
    if (((isrflags & USART_SR_PE) != RESET) && ((cr1its & USART_CR1_PEIE) != RESET))
 800266a:	f8d7 30e4 	ldr.w	r3, [r7, #228]	; 0xe4
 800266e:	f003 0301 	and.w	r3, r3, #1
 8002672:	2b00      	cmp	r3, #0
 8002674:	d00b      	beq.n	800268e <HAL_UART_IRQHandler+0xae>
 8002676:	f8d7 30e0 	ldr.w	r3, [r7, #224]	; 0xe0
 800267a:	f403 7380 	and.w	r3, r3, #256	; 0x100
 800267e:	2b00      	cmp	r3, #0
 8002680:	d005      	beq.n	800268e <HAL_UART_IRQHandler+0xae>
    {
      huart->ErrorCode |= HAL_UART_ERROR_PE;
 8002682:	687b      	ldr	r3, [r7, #4]
 8002684:	6c5b      	ldr	r3, [r3, #68]	; 0x44
 8002686:	f043 0201 	orr.w	r2, r3, #1
 800268a:	687b      	ldr	r3, [r7, #4]
 800268c:	645a      	str	r2, [r3, #68]	; 0x44
    }

    /* UART noise error interrupt occurred -----------------------------------*/
    if (((isrflags & USART_SR_NE) != RESET) && ((cr3its & USART_CR3_EIE) != RESET))
 800268e:	f8d7 30e4 	ldr.w	r3, [r7, #228]	; 0xe4
 8002692:	f003 0304 	and.w	r3, r3, #4
 8002696:	2b00      	cmp	r3, #0
 8002698:	d00b      	beq.n	80026b2 <HAL_UART_IRQHandler+0xd2>
 800269a:	f8d7 30dc 	ldr.w	r3, [r7, #220]	; 0xdc
 800269e:	f003 0301 	and.w	r3, r3, #1
 80026a2:	2b00      	cmp	r3, #0
 80026a4:	d005      	beq.n	80026b2 <HAL_UART_IRQHandler+0xd2>
    {
      huart->ErrorCode |= HAL_UART_ERROR_NE;
 80026a6:	687b      	ldr	r3, [r7, #4]
 80026a8:	6c5b      	ldr	r3, [r3, #68]	; 0x44
 80026aa:	f043 0202 	orr.w	r2, r3, #2
 80026ae:	687b      	ldr	r3, [r7, #4]
 80026b0:	645a      	str	r2, [r3, #68]	; 0x44
    }

    /* UART frame error interrupt occurred -----------------------------------*/
    if (((isrflags & USART_SR_FE) != RESET) && ((cr3its & USART_CR3_EIE) != RESET))
 80026b2:	f8d7 30e4 	ldr.w	r3, [r7, #228]	; 0xe4
 80026b6:	f003 0302 	and.w	r3, r3, #2
 80026ba:	2b00      	cmp	r3, #0
 80026bc:	d00b      	beq.n	80026d6 <HAL_UART_IRQHandler+0xf6>
 80026be:	f8d7 30dc 	ldr.w	r3, [r7, #220]	; 0xdc
 80026c2:	f003 0301 	and.w	r3, r3, #1
 80026c6:	2b00      	cmp	r3, #0
 80026c8:	d005      	beq.n	80026d6 <HAL_UART_IRQHandler+0xf6>
    {
      huart->ErrorCode |= HAL_UART_ERROR_FE;
 80026ca:	687b      	ldr	r3, [r7, #4]
 80026cc:	6c5b      	ldr	r3, [r3, #68]	; 0x44
 80026ce:	f043 0204 	orr.w	r2, r3, #4
 80026d2:	687b      	ldr	r3, [r7, #4]
 80026d4:	645a      	str	r2, [r3, #68]	; 0x44
    }

    /* UART Over-Run interrupt occurred --------------------------------------*/
    if (((isrflags & USART_SR_ORE) != RESET) && (((cr1its & USART_CR1_RXNEIE) != RESET)
 80026d6:	f8d7 30e4 	ldr.w	r3, [r7, #228]	; 0xe4
 80026da:	f003 0308 	and.w	r3, r3, #8
 80026de:	2b00      	cmp	r3, #0
 80026e0:	d011      	beq.n	8002706 <HAL_UART_IRQHandler+0x126>
 80026e2:	f8d7 30e0 	ldr.w	r3, [r7, #224]	; 0xe0
 80026e6:	f003 0320 	and.w	r3, r3, #32
 80026ea:	2b00      	cmp	r3, #0
 80026ec:	d105      	bne.n	80026fa <HAL_UART_IRQHandler+0x11a>
                                                 || ((cr3its & USART_CR3_EIE) != RESET)))
 80026ee:	f8d7 30dc 	ldr.w	r3, [r7, #220]	; 0xdc
 80026f2:	f003 0301 	and.w	r3, r3, #1
 80026f6:	2b00      	cmp	r3, #0
 80026f8:	d005      	beq.n	8002706 <HAL_UART_IRQHandler+0x126>
    {
      huart->ErrorCode |= HAL_UART_ERROR_ORE;
 80026fa:	687b      	ldr	r3, [r7, #4]
 80026fc:	6c5b      	ldr	r3, [r3, #68]	; 0x44
 80026fe:	f043 0208 	orr.w	r2, r3, #8
 8002702:	687b      	ldr	r3, [r7, #4]
 8002704:	645a      	str	r2, [r3, #68]	; 0x44
    }

    /* Call UART Error Call back function if need be --------------------------*/
    if (huart->ErrorCode != HAL_UART_ERROR_NONE)
 8002706:	687b      	ldr	r3, [r7, #4]
 8002708:	6c5b      	ldr	r3, [r3, #68]	; 0x44
 800270a:	2b00      	cmp	r3, #0
 800270c:	f000 81f2 	beq.w	8002af4 <HAL_UART_IRQHandler+0x514>
    {
      /* UART in mode Receiver -----------------------------------------------*/
      if (((isrflags & USART_SR_RXNE) != RESET) && ((cr1its & USART_CR1_RXNEIE) != RESET))
 8002710:	f8d7 30e4 	ldr.w	r3, [r7, #228]	; 0xe4
 8002714:	f003 0320 	and.w	r3, r3, #32
 8002718:	2b00      	cmp	r3, #0
 800271a:	d008      	beq.n	800272e <HAL_UART_IRQHandler+0x14e>
 800271c:	f8d7 30e0 	ldr.w	r3, [r7, #224]	; 0xe0
 8002720:	f003 0320 	and.w	r3, r3, #32
 8002724:	2b00      	cmp	r3, #0
 8002726:	d002      	beq.n	800272e <HAL_UART_IRQHandler+0x14e>
      {
        UART_Receive_IT(huart);
 8002728:	6878      	ldr	r0, [r7, #4]
 800272a:	f000 fb5c 	bl	8002de6 <UART_Receive_IT>
      }

      /* If Overrun error occurs, or if any error occurs in DMA mode reception,
         consider error as blocking */
      dmarequest = HAL_IS_BIT_SET(huart->Instance->CR3, USART_CR3_DMAR);
 800272e:	687b      	ldr	r3, [r7, #4]
 8002730:	681b      	ldr	r3, [r3, #0]
 8002732:	695b      	ldr	r3, [r3, #20]
 8002734:	f003 0340 	and.w	r3, r3, #64	; 0x40
 8002738:	2b00      	cmp	r3, #0
 800273a:	bf14      	ite	ne
 800273c:	2301      	movne	r3, #1
 800273e:	2300      	moveq	r3, #0
 8002740:	b2db      	uxtb	r3, r3
 8002742:	f8c7 30d4 	str.w	r3, [r7, #212]	; 0xd4
      if (((huart->ErrorCode & HAL_UART_ERROR_ORE) != RESET) || dmarequest)
 8002746:	687b      	ldr	r3, [r7, #4]
 8002748:	6c5b      	ldr	r3, [r3, #68]	; 0x44
 800274a:	f003 0308 	and.w	r3, r3, #8
 800274e:	2b00      	cmp	r3, #0
 8002750:	d103      	bne.n	800275a <HAL_UART_IRQHandler+0x17a>
 8002752:	f8d7 30d4 	ldr.w	r3, [r7, #212]	; 0xd4
 8002756:	2b00      	cmp	r3, #0
 8002758:	d04f      	beq.n	80027fa <HAL_UART_IRQHandler+0x21a>
      {
        /* Blocking error : transfer is aborted
           Set the UART state ready to be able to start again the process,
           Disable Rx Interrupts, and disable Rx DMA request, if ongoing */
        UART_EndRxTransfer(huart);
 800275a:	6878      	ldr	r0, [r7, #4]
 800275c:	f000 fa66 	bl	8002c2c <UART_EndRxTransfer>

        /* Disable the UART DMA Rx request if enabled */
        if (HAL_IS_BIT_SET(huart->Instance->CR3, USART_CR3_DMAR))
 8002760:	687b      	ldr	r3, [r7, #4]
 8002762:	681b      	ldr	r3, [r3, #0]
 8002764:	695b      	ldr	r3, [r3, #20]
 8002766:	f003 0340 	and.w	r3, r3, #64	; 0x40
 800276a:	2b00      	cmp	r3, #0
 800276c:	d041      	beq.n	80027f2 <HAL_UART_IRQHandler+0x212>
        {
          ATOMIC_CLEAR_BIT(huart->Instance->CR3, USART_CR3_DMAR);
 800276e:	687b      	ldr	r3, [r7, #4]
 8002770:	681b      	ldr	r3, [r3, #0]
 8002772:	3314      	adds	r3, #20
 8002774:	f8c7 309c 	str.w	r3, [r7, #156]	; 0x9c
 */
__STATIC_FORCEINLINE uint32_t __LDREXW(volatile uint32_t *addr)
{
    uint32_t result;

   __ASM volatile ("ldrex %0, %1" : "=r" (result) : "Q" (*addr) );
 8002778:	f8d7 309c 	ldr.w	r3, [r7, #156]	; 0x9c
 800277c:	e853 3f00 	ldrex	r3, [r3]
 8002780:	f8c7 3098 	str.w	r3, [r7, #152]	; 0x98
   return(result);
 8002784:	f8d7 3098 	ldr.w	r3, [r7, #152]	; 0x98
 8002788:	f023 0340 	bic.w	r3, r3, #64	; 0x40
 800278c:	f8c7 30d0 	str.w	r3, [r7, #208]	; 0xd0
 8002790:	687b      	ldr	r3, [r7, #4]
 8002792:	681b      	ldr	r3, [r3, #0]
 8002794:	3314      	adds	r3, #20
 8002796:	f8d7 20d0 	ldr.w	r2, [r7, #208]	; 0xd0
 800279a:	f8c7 20a8 	str.w	r2, [r7, #168]	; 0xa8
 800279e:	f8c7 30a4 	str.w	r3, [r7, #164]	; 0xa4
 */
__STATIC_FORCEINLINE uint32_t __STREXW(uint32_t value, volatile uint32_t *addr)
{
   uint32_t result;

   __ASM volatile ("strex %0, %2, %1" : "=&r" (result), "=Q" (*addr) : "r" (value) );
 80027a2:	f8d7 10a4 	ldr.w	r1, [r7, #164]	; 0xa4
 80027a6:	f8d7 20a8 	ldr.w	r2, [r7, #168]	; 0xa8
 80027aa:	e841 2300 	strex	r3, r2, [r1]
 80027ae:	f8c7 30a0 	str.w	r3, [r7, #160]	; 0xa0
   return(result);
 80027b2:	f8d7 30a0 	ldr.w	r3, [r7, #160]	; 0xa0
 80027b6:	2b00      	cmp	r3, #0
 80027b8:	d1d9      	bne.n	800276e <HAL_UART_IRQHandler+0x18e>

          /* Abort the UART DMA Rx channel */
          if (huart->hdmarx != NULL)
 80027ba:	687b      	ldr	r3, [r7, #4]
 80027bc:	6bdb      	ldr	r3, [r3, #60]	; 0x3c
 80027be:	2b00      	cmp	r3, #0
 80027c0:	d013      	beq.n	80027ea <HAL_UART_IRQHandler+0x20a>
          {
            /* Set the UART DMA Abort callback :
               will lead to call HAL_UART_ErrorCallback() at end of DMA abort procedure */
            huart->hdmarx->XferAbortCallback = UART_DMAAbortOnError;
 80027c2:	687b      	ldr	r3, [r7, #4]
 80027c4:	6bdb      	ldr	r3, [r3, #60]	; 0x3c
 80027c6:	4a7e      	ldr	r2, [pc, #504]	; (80029c0 <HAL_UART_IRQHandler+0x3e0>)
 80027c8:	635a      	str	r2, [r3, #52]	; 0x34
            if (HAL_DMA_Abort_IT(huart->hdmarx) != HAL_OK)
 80027ca:	687b      	ldr	r3, [r7, #4]
 80027cc:	6bdb      	ldr	r3, [r3, #60]	; 0x3c
 80027ce:	4618      	mov	r0, r3
 80027d0:	f7fe fba8 	bl	8000f24 <HAL_DMA_Abort_IT>
 80027d4:	4603      	mov	r3, r0
 80027d6:	2b00      	cmp	r3, #0
 80027d8:	d016      	beq.n	8002808 <HAL_UART_IRQHandler+0x228>
            {
              /* Call Directly XferAbortCallback function in case of error */
              huart->hdmarx->XferAbortCallback(huart->hdmarx);
 80027da:	687b      	ldr	r3, [r7, #4]
 80027dc:	6bdb      	ldr	r3, [r3, #60]	; 0x3c
 80027de:	6b5b      	ldr	r3, [r3, #52]	; 0x34
 80027e0:	687a      	ldr	r2, [r7, #4]
 80027e2:	6bd2      	ldr	r2, [r2, #60]	; 0x3c
 80027e4:	4610      	mov	r0, r2
 80027e6:	4798      	blx	r3
        if (HAL_IS_BIT_SET(huart->Instance->CR3, USART_CR3_DMAR))
 80027e8:	e00e      	b.n	8002808 <HAL_UART_IRQHandler+0x228>
#if (USE_HAL_UART_REGISTER_CALLBACKS == 1)
            /*Call registered error callback*/
            huart->ErrorCallback(huart);
#else
            /*Call legacy weak error callback*/
            HAL_UART_ErrorCallback(huart);
 80027ea:	6878      	ldr	r0, [r7, #4]
 80027ec:	f000 f99c 	bl	8002b28 <HAL_UART_ErrorCallback>
        if (HAL_IS_BIT_SET(huart->Instance->CR3, USART_CR3_DMAR))
 80027f0:	e00a      	b.n	8002808 <HAL_UART_IRQHandler+0x228>
#if (USE_HAL_UART_REGISTER_CALLBACKS == 1)
          /*Call registered error callback*/
          huart->ErrorCallback(huart);
#else
          /*Call legacy weak error callback*/
          HAL_UART_ErrorCallback(huart);
 80027f2:	6878      	ldr	r0, [r7, #4]
 80027f4:	f000 f998 	bl	8002b28 <HAL_UART_ErrorCallback>
        if (HAL_IS_BIT_SET(huart->Instance->CR3, USART_CR3_DMAR))
 80027f8:	e006      	b.n	8002808 <HAL_UART_IRQHandler+0x228>
#if (USE_HAL_UART_REGISTER_CALLBACKS == 1)
        /*Call registered error callback*/
        huart->ErrorCallback(huart);
#else
        /*Call legacy weak error callback*/
        HAL_UART_ErrorCallback(huart);
 80027fa:	6878      	ldr	r0, [r7, #4]
 80027fc:	f000 f994 	bl	8002b28 <HAL_UART_ErrorCallback>
#endif /* USE_HAL_UART_REGISTER_CALLBACKS */

        huart->ErrorCode = HAL_UART_ERROR_NONE;
 8002800:	687b      	ldr	r3, [r7, #4]
 8002802:	2200      	movs	r2, #0
 8002804:	645a      	str	r2, [r3, #68]	; 0x44
      }
    }
    return;
 8002806:	e175      	b.n	8002af4 <HAL_UART_IRQHandler+0x514>
        if (HAL_IS_BIT_SET(huart->Instance->CR3, USART_CR3_DMAR))
 8002808:	bf00      	nop
    return;
 800280a:	e173      	b.n	8002af4 <HAL_UART_IRQHandler+0x514>
  } /* End if some error occurs */

  /* Check current reception Mode :
     If Reception till IDLE event has been selected : */
  if ((huart->ReceptionType == HAL_UART_RECEPTION_TOIDLE)
 800280c:	687b      	ldr	r3, [r7, #4]
 800280e:	6b1b      	ldr	r3, [r3, #48]	; 0x30
 8002810:	2b01      	cmp	r3, #1
 8002812:	f040 814f 	bne.w	8002ab4 <HAL_UART_IRQHandler+0x4d4>
      && ((isrflags & USART_SR_IDLE) != 0U)
 8002816:	f8d7 30e4 	ldr.w	r3, [r7, #228]	; 0xe4
 800281a:	f003 0310 	and.w	r3, r3, #16
 800281e:	2b00      	cmp	r3, #0
 8002820:	f000 8148 	beq.w	8002ab4 <HAL_UART_IRQHandler+0x4d4>
      && ((cr1its & USART_SR_IDLE) != 0U))
 8002824:	f8d7 30e0 	ldr.w	r3, [r7, #224]	; 0xe0
 8002828:	f003 0310 	and.w	r3, r3, #16
 800282c:	2b00      	cmp	r3, #0
 800282e:	f000 8141 	beq.w	8002ab4 <HAL_UART_IRQHandler+0x4d4>
  {
    __HAL_UART_CLEAR_IDLEFLAG(huart);
 8002832:	2300      	movs	r3, #0
 8002834:	60bb      	str	r3, [r7, #8]
 8002836:	687b      	ldr	r3, [r7, #4]
 8002838:	681b      	ldr	r3, [r3, #0]
 800283a:	681b      	ldr	r3, [r3, #0]
 800283c:	60bb      	str	r3, [r7, #8]
 800283e:	687b      	ldr	r3, [r7, #4]
 8002840:	681b      	ldr	r3, [r3, #0]
 8002842:	685b      	ldr	r3, [r3, #4]
 8002844:	60bb      	str	r3, [r7, #8]
 8002846:	68bb      	ldr	r3, [r7, #8]

    /* Check if DMA mode is enabled in UART */
    if (HAL_IS_BIT_SET(huart->Instance->CR3, USART_CR3_DMAR))
 8002848:	687b      	ldr	r3, [r7, #4]
 800284a:	681b      	ldr	r3, [r3, #0]
 800284c:	695b      	ldr	r3, [r3, #20]
 800284e:	f003 0340 	and.w	r3, r3, #64	; 0x40
 8002852:	2b00      	cmp	r3, #0
 8002854:	f000 80b6 	beq.w	80029c4 <HAL_UART_IRQHandler+0x3e4>
    {
      /* DMA mode enabled */
      /* Check received length : If all expected data are received, do nothing,
         (DMA cplt callback will be called).
         Otherwise, if at least one data has already been received, IDLE event is to be notified to user */
      uint16_t nb_remaining_rx_data = (uint16_t) __HAL_DMA_GET_COUNTER(huart->hdmarx);
 8002858:	687b      	ldr	r3, [r7, #4]
 800285a:	6bdb      	ldr	r3, [r3, #60]	; 0x3c
 800285c:	681b      	ldr	r3, [r3, #0]
 800285e:	685b      	ldr	r3, [r3, #4]
 8002860:	f8a7 30be 	strh.w	r3, [r7, #190]	; 0xbe
      if ((nb_remaining_rx_data > 0U)
 8002864:	f8b7 30be 	ldrh.w	r3, [r7, #190]	; 0xbe
 8002868:	2b00      	cmp	r3, #0
 800286a:	f000 8145 	beq.w	8002af8 <HAL_UART_IRQHandler+0x518>
          && (nb_remaining_rx_data < huart->RxXferSize))
 800286e:	687b      	ldr	r3, [r7, #4]
 8002870:	8d9b      	ldrh	r3, [r3, #44]	; 0x2c
 8002872:	f8b7 20be 	ldrh.w	r2, [r7, #190]	; 0xbe
 8002876:	429a      	cmp	r2, r3
 8002878:	f080 813e 	bcs.w	8002af8 <HAL_UART_IRQHandler+0x518>
      {
        /* Reception is not complete */
        huart->RxXferCount = nb_remaining_rx_data;
 800287c:	687b      	ldr	r3, [r7, #4]
 800287e:	f8b7 20be 	ldrh.w	r2, [r7, #190]	; 0xbe
 8002882:	85da      	strh	r2, [r3, #46]	; 0x2e

        /* In Normal mode, end DMA xfer and HAL UART Rx process*/
        if (huart->hdmarx->Init.Mode != DMA_CIRCULAR)
 8002884:	687b      	ldr	r3, [r7, #4]
 8002886:	6bdb      	ldr	r3, [r3, #60]	; 0x3c
 8002888:	699b      	ldr	r3, [r3, #24]
 800288a:	2b20      	cmp	r3, #32
 800288c:	f000 8088 	beq.w	80029a0 <HAL_UART_IRQHandler+0x3c0>
        {
          /* Disable PE and ERR (Frame error, noise error, overrun error) interrupts */
          ATOMIC_CLEAR_BIT(huart->Instance->CR1, USART_CR1_PEIE);
 8002890:	687b      	ldr	r3, [r7, #4]
 8002892:	681b      	ldr	r3, [r3, #0]
 8002894:	330c      	adds	r3, #12
 8002896:	f8c7 3088 	str.w	r3, [r7, #136]	; 0x88
   __ASM volatile ("ldrex %0, %1" : "=r" (result) : "Q" (*addr) );
 800289a:	f8d7 3088 	ldr.w	r3, [r7, #136]	; 0x88
 800289e:	e853 3f00 	ldrex	r3, [r3]
 80028a2:	f8c7 3084 	str.w	r3, [r7, #132]	; 0x84
   return(result);
 80028a6:	f8d7 3084 	ldr.w	r3, [r7, #132]	; 0x84
 80028aa:	f423 7380 	bic.w	r3, r3, #256	; 0x100
 80028ae:	f8c7 30b8 	str.w	r3, [r7, #184]	; 0xb8
 80028b2:	687b      	ldr	r3, [r7, #4]
 80028b4:	681b      	ldr	r3, [r3, #0]
 80028b6:	330c      	adds	r3, #12
 80028b8:	f8d7 20b8 	ldr.w	r2, [r7, #184]	; 0xb8
 80028bc:	f8c7 2094 	str.w	r2, [r7, #148]	; 0x94
 80028c0:	f8c7 3090 	str.w	r3, [r7, #144]	; 0x90
   __ASM volatile ("strex %0, %2, %1" : "=&r" (result), "=Q" (*addr) : "r" (value) );
 80028c4:	f8d7 1090 	ldr.w	r1, [r7, #144]	; 0x90
 80028c8:	f8d7 2094 	ldr.w	r2, [r7, #148]	; 0x94
 80028cc:	e841 2300 	strex	r3, r2, [r1]
 80028d0:	f8c7 308c 	str.w	r3, [r7, #140]	; 0x8c
   return(result);
 80028d4:	f8d7 308c 	ldr.w	r3, [r7, #140]	; 0x8c
 80028d8:	2b00      	cmp	r3, #0
 80028da:	d1d9      	bne.n	8002890 <HAL_UART_IRQHandler+0x2b0>
          ATOMIC_CLEAR_BIT(huart->Instance->CR3, USART_CR3_EIE);
 80028dc:	687b      	ldr	r3, [r7, #4]
 80028de:	681b      	ldr	r3, [r3, #0]
 80028e0:	3314      	adds	r3, #20
 80028e2:	677b      	str	r3, [r7, #116]	; 0x74
   __ASM volatile ("ldrex %0, %1" : "=r" (result) : "Q" (*addr) );
 80028e4:	6f7b      	ldr	r3, [r7, #116]	; 0x74
 80028e6:	e853 3f00 	ldrex	r3, [r3]
 80028ea:	673b      	str	r3, [r7, #112]	; 0x70
   return(result);
 80028ec:	6f3b      	ldr	r3, [r7, #112]	; 0x70
 80028ee:	f023 0301 	bic.w	r3, r3, #1
 80028f2:	f8c7 30b4 	str.w	r3, [r7, #180]	; 0xb4
 80028f6:	687b      	ldr	r3, [r7, #4]
 80028f8:	681b      	ldr	r3, [r3, #0]
 80028fa:	3314      	adds	r3, #20
 80028fc:	f8d7 20b4 	ldr.w	r2, [r7, #180]	; 0xb4
 8002900:	f8c7 2080 	str.w	r2, [r7, #128]	; 0x80
 8002904:	67fb      	str	r3, [r7, #124]	; 0x7c
   __ASM volatile ("strex %0, %2, %1" : "=&r" (result), "=Q" (*addr) : "r" (value) );
 8002906:	6ff9      	ldr	r1, [r7, #124]	; 0x7c
 8002908:	f8d7 2080 	ldr.w	r2, [r7, #128]	; 0x80
 800290c:	e841 2300 	strex	r3, r2, [r1]
 8002910:	67bb      	str	r3, [r7, #120]	; 0x78
   return(result);
 8002912:	6fbb      	ldr	r3, [r7, #120]	; 0x78
 8002914:	2b00      	cmp	r3, #0
 8002916:	d1e1      	bne.n	80028dc <HAL_UART_IRQHandler+0x2fc>

          /* Disable the DMA transfer for the receiver request by resetting the DMAR bit
             in the UART CR3 register */
          ATOMIC_CLEAR_BIT(huart->Instance->CR3, USART_CR3_DMAR);
 8002918:	687b      	ldr	r3, [r7, #4]
 800291a:	681b      	ldr	r3, [r3, #0]
 800291c:	3314      	adds	r3, #20
 800291e:	663b      	str	r3, [r7, #96]	; 0x60
   __ASM volatile ("ldrex %0, %1" : "=r" (result) : "Q" (*addr) );
 8002920:	6e3b      	ldr	r3, [r7, #96]	; 0x60
 8002922:	e853 3f00 	ldrex	r3, [r3]
 8002926:	65fb      	str	r3, [r7, #92]	; 0x5c
   return(result);
 8002928:	6dfb      	ldr	r3, [r7, #92]	; 0x5c
 800292a:	f023 0340 	bic.w	r3, r3, #64	; 0x40
 800292e:	f8c7 30b0 	str.w	r3, [r7, #176]	; 0xb0
 8002932:	687b      	ldr	r3, [r7, #4]
 8002934:	681b      	ldr	r3, [r3, #0]
 8002936:	3314      	adds	r3, #20
 8002938:	f8d7 20b0 	ldr.w	r2, [r7, #176]	; 0xb0
 800293c:	66fa      	str	r2, [r7, #108]	; 0x6c
 800293e:	66bb      	str	r3, [r7, #104]	; 0x68
   __ASM volatile ("strex %0, %2, %1" : "=&r" (result), "=Q" (*addr) : "r" (value) );
 8002940:	6eb9      	ldr	r1, [r7, #104]	; 0x68
 8002942:	6efa      	ldr	r2, [r7, #108]	; 0x6c
 8002944:	e841 2300 	strex	r3, r2, [r1]
 8002948:	667b      	str	r3, [r7, #100]	; 0x64
   return(result);
 800294a:	6e7b      	ldr	r3, [r7, #100]	; 0x64
 800294c:	2b00      	cmp	r3, #0
 800294e:	d1e3      	bne.n	8002918 <HAL_UART_IRQHandler+0x338>

          /* At end of Rx process, restore huart->RxState to Ready */
          huart->RxState = HAL_UART_STATE_READY;
 8002950:	687b      	ldr	r3, [r7, #4]
 8002952:	2220      	movs	r2, #32
 8002954:	f883 2042 	strb.w	r2, [r3, #66]	; 0x42
          huart->ReceptionType = HAL_UART_RECEPTION_STANDARD;
 8002958:	687b      	ldr	r3, [r7, #4]
 800295a:	2200      	movs	r2, #0
 800295c:	631a      	str	r2, [r3, #48]	; 0x30

          ATOMIC_CLEAR_BIT(huart->Instance->CR1, USART_CR1_IDLEIE);
 800295e:	687b      	ldr	r3, [r7, #4]
 8002960:	681b      	ldr	r3, [r3, #0]
 8002962:	330c      	adds	r3, #12
 8002964:	64fb      	str	r3, [r7, #76]	; 0x4c
   __ASM volatile ("ldrex %0, %1" : "=r" (result) : "Q" (*addr) );
 8002966:	6cfb      	ldr	r3, [r7, #76]	; 0x4c
 8002968:	e853 3f00 	ldrex	r3, [r3]
 800296c:	64bb      	str	r3, [r7, #72]	; 0x48
   return(result);
 800296e:	6cbb      	ldr	r3, [r7, #72]	; 0x48
 8002970:	f023 0310 	bic.w	r3, r3, #16
 8002974:	f8c7 30ac 	str.w	r3, [r7, #172]	; 0xac
 8002978:	687b      	ldr	r3, [r7, #4]
 800297a:	681b      	ldr	r3, [r3, #0]
 800297c:	330c      	adds	r3, #12
 800297e:	f8d7 20ac 	ldr.w	r2, [r7, #172]	; 0xac
 8002982:	65ba      	str	r2, [r7, #88]	; 0x58
 8002984:	657b      	str	r3, [r7, #84]	; 0x54
   __ASM volatile ("strex %0, %2, %1" : "=&r" (result), "=Q" (*addr) : "r" (value) );
 8002986:	6d79      	ldr	r1, [r7, #84]	; 0x54
 8002988:	6dba      	ldr	r2, [r7, #88]	; 0x58
 800298a:	e841 2300 	strex	r3, r2, [r1]
 800298e:	653b      	str	r3, [r7, #80]	; 0x50
   return(result);
 8002990:	6d3b      	ldr	r3, [r7, #80]	; 0x50
 8002992:	2b00      	cmp	r3, #0
 8002994:	d1e3      	bne.n	800295e <HAL_UART_IRQHandler+0x37e>

          /* Last bytes received, so no need as the abort is immediate */
          (void)HAL_DMA_Abort(huart->hdmarx);
 8002996:	687b      	ldr	r3, [r7, #4]
 8002998:	6bdb      	ldr	r3, [r3, #60]	; 0x3c
 800299a:	4618      	mov	r0, r3
 800299c:	f7fe fa87 	bl	8000eae <HAL_DMA_Abort>
        }

        /* Initialize type of RxEvent that correspond to RxEvent callback execution;
        In this case, Rx Event type is Idle Event */
        huart->RxEventType = HAL_UART_RXEVENT_IDLE;
 80029a0:	687b      	ldr	r3, [r7, #4]
 80029a2:	2202      	movs	r2, #2
 80029a4:	635a      	str	r2, [r3, #52]	; 0x34
#if (USE_HAL_UART_REGISTER_CALLBACKS == 1)
        /*Call registered Rx Event callback*/
        huart->RxEventCallback(huart, (huart->RxXferSize - huart->RxXferCount));
#else
        /*Call legacy weak Rx Event callback*/
        HAL_UARTEx_RxEventCallback(huart, (huart->RxXferSize - huart->RxXferCount));
 80029a6:	687b      	ldr	r3, [r7, #4]
 80029a8:	8d9a      	ldrh	r2, [r3, #44]	; 0x2c
 80029aa:	687b      	ldr	r3, [r7, #4]
 80029ac:	8ddb      	ldrh	r3, [r3, #46]	; 0x2e
 80029ae:	b29b      	uxth	r3, r3
 80029b0:	1ad3      	subs	r3, r2, r3
 80029b2:	b29b      	uxth	r3, r3
 80029b4:	4619      	mov	r1, r3
 80029b6:	6878      	ldr	r0, [r7, #4]
 80029b8:	f000 f8bf 	bl	8002b3a <HAL_UARTEx_RxEventCallback>
#endif /* USE_HAL_UART_REGISTER_CALLBACKS */
      }
      return;
 80029bc:	e09c      	b.n	8002af8 <HAL_UART_IRQHandler+0x518>
 80029be:	bf00      	nop
 80029c0:	08002cf1 	.word	0x08002cf1
    else
    {
      /* DMA mode not enabled */
      /* Check received length : If all expected data are received, do nothing.
         Otherwise, if at least one data has already been received, IDLE event is to be notified to user */
      uint16_t nb_rx_data = huart->RxXferSize - huart->RxXferCount;
 80029c4:	687b      	ldr	r3, [r7, #4]
 80029c6:	8d9a      	ldrh	r2, [r3, #44]	; 0x2c
 80029c8:	687b      	ldr	r3, [r7, #4]
 80029ca:	8ddb      	ldrh	r3, [r3, #46]	; 0x2e
 80029cc:	b29b      	uxth	r3, r3
 80029ce:	1ad3      	subs	r3, r2, r3
 80029d0:	f8a7 30ce 	strh.w	r3, [r7, #206]	; 0xce
      if ((huart->RxXferCount > 0U)
 80029d4:	687b      	ldr	r3, [r7, #4]
 80029d6:	8ddb      	ldrh	r3, [r3, #46]	; 0x2e
 80029d8:	b29b      	uxth	r3, r3
 80029da:	2b00      	cmp	r3, #0
 80029dc:	f000 808e 	beq.w	8002afc <HAL_UART_IRQHandler+0x51c>
          && (nb_rx_data > 0U))
 80029e0:	f8b7 30ce 	ldrh.w	r3, [r7, #206]	; 0xce
 80029e4:	2b00      	cmp	r3, #0
 80029e6:	f000 8089 	beq.w	8002afc <HAL_UART_IRQHandler+0x51c>
      {
        /* Disable the UART Parity Error Interrupt and RXNE interrupts */
        ATOMIC_CLEAR_BIT(huart->Instance->CR1, (USART_CR1_RXNEIE | USART_CR1_PEIE));
 80029ea:	687b      	ldr	r3, [r7, #4]
 80029ec:	681b      	ldr	r3, [r3, #0]
 80029ee:	330c      	adds	r3, #12
 80029f0:	63bb      	str	r3, [r7, #56]	; 0x38
   __ASM volatile ("ldrex %0, %1" : "=r" (result) : "Q" (*addr) );
 80029f2:	6bbb      	ldr	r3, [r7, #56]	; 0x38
 80029f4:	e853 3f00 	ldrex	r3, [r3]
 80029f8:	637b      	str	r3, [r7, #52]	; 0x34
   return(result);
 80029fa:	6b7b      	ldr	r3, [r7, #52]	; 0x34
 80029fc:	f423 7390 	bic.w	r3, r3, #288	; 0x120
 8002a00:	f8c7 30c8 	str.w	r3, [r7, #200]	; 0xc8
 8002a04:	687b      	ldr	r3, [r7, #4]
 8002a06:	681b      	ldr	r3, [r3, #0]
 8002a08:	330c      	adds	r3, #12
 8002a0a:	f8d7 20c8 	ldr.w	r2, [r7, #200]	; 0xc8
 8002a0e:	647a      	str	r2, [r7, #68]	; 0x44
 8002a10:	643b      	str	r3, [r7, #64]	; 0x40
   __ASM volatile ("strex %0, %2, %1" : "=&r" (result), "=Q" (*addr) : "r" (value) );
 8002a12:	6c39      	ldr	r1, [r7, #64]	; 0x40
 8002a14:	6c7a      	ldr	r2, [r7, #68]	; 0x44
 8002a16:	e841 2300 	strex	r3, r2, [r1]
 8002a1a:	63fb      	str	r3, [r7, #60]	; 0x3c
   return(result);
 8002a1c:	6bfb      	ldr	r3, [r7, #60]	; 0x3c
 8002a1e:	2b00      	cmp	r3, #0
 8002a20:	d1e3      	bne.n	80029ea <HAL_UART_IRQHandler+0x40a>

        /* Disable the UART Error Interrupt: (Frame error, noise error, overrun error) */
        ATOMIC_CLEAR_BIT(huart->Instance->CR3, USART_CR3_EIE);
 8002a22:	687b      	ldr	r3, [r7, #4]
 8002a24:	681b      	ldr	r3, [r3, #0]
 8002a26:	3314      	adds	r3, #20
 8002a28:	627b      	str	r3, [r7, #36]	; 0x24
   __ASM volatile ("ldrex %0, %1" : "=r" (result) : "Q" (*addr) );
 8002a2a:	6a7b      	ldr	r3, [r7, #36]	; 0x24
 8002a2c:	e853 3f00 	ldrex	r3, [r3]
 8002a30:	623b      	str	r3, [r7, #32]
   return(result);
 8002a32:	6a3b      	ldr	r3, [r7, #32]
 8002a34:	f023 0301 	bic.w	r3, r3, #1
 8002a38:	f8c7 30c4 	str.w	r3, [r7, #196]	; 0xc4
 8002a3c:	687b      	ldr	r3, [r7, #4]
 8002a3e:	681b      	ldr	r3, [r3, #0]
 8002a40:	3314      	adds	r3, #20
 8002a42:	f8d7 20c4 	ldr.w	r2, [r7, #196]	; 0xc4
 8002a46:	633a      	str	r2, [r7, #48]	; 0x30
 8002a48:	62fb      	str	r3, [r7, #44]	; 0x2c
   __ASM volatile ("strex %0, %2, %1" : "=&r" (result), "=Q" (*addr) : "r" (value) );
 8002a4a:	6af9      	ldr	r1, [r7, #44]	; 0x2c
 8002a4c:	6b3a      	ldr	r2, [r7, #48]	; 0x30
 8002a4e:	e841 2300 	strex	r3, r2, [r1]
 8002a52:	62bb      	str	r3, [r7, #40]	; 0x28
   return(result);
 8002a54:	6abb      	ldr	r3, [r7, #40]	; 0x28
 8002a56:	2b00      	cmp	r3, #0
 8002a58:	d1e3      	bne.n	8002a22 <HAL_UART_IRQHandler+0x442>

        /* Rx process is completed, restore huart->RxState to Ready */
        huart->RxState = HAL_UART_STATE_READY;
 8002a5a:	687b      	ldr	r3, [r7, #4]
 8002a5c:	2220      	movs	r2, #32
 8002a5e:	f883 2042 	strb.w	r2, [r3, #66]	; 0x42
        huart->ReceptionType = HAL_UART_RECEPTION_STANDARD;
 8002a62:	687b      	ldr	r3, [r7, #4]
 8002a64:	2200      	movs	r2, #0
 8002a66:	631a      	str	r2, [r3, #48]	; 0x30

        ATOMIC_CLEAR_BIT(huart->Instance->CR1, USART_CR1_IDLEIE);
 8002a68:	687b      	ldr	r3, [r7, #4]
 8002a6a:	681b      	ldr	r3, [r3, #0]
 8002a6c:	330c      	adds	r3, #12
 8002a6e:	613b      	str	r3, [r7, #16]
   __ASM volatile ("ldrex %0, %1" : "=r" (result) : "Q" (*addr) );
 8002a70:	693b      	ldr	r3, [r7, #16]
 8002a72:	e853 3f00 	ldrex	r3, [r3]
 8002a76:	60fb      	str	r3, [r7, #12]
   return(result);
 8002a78:	68fb      	ldr	r3, [r7, #12]
 8002a7a:	f023 0310 	bic.w	r3, r3, #16
 8002a7e:	f8c7 30c0 	str.w	r3, [r7, #192]	; 0xc0
 8002a82:	687b      	ldr	r3, [r7, #4]
 8002a84:	681b      	ldr	r3, [r3, #0]
 8002a86:	330c      	adds	r3, #12
 8002a88:	f8d7 20c0 	ldr.w	r2, [r7, #192]	; 0xc0
 8002a8c:	61fa      	str	r2, [r7, #28]
 8002a8e:	61bb      	str	r3, [r7, #24]
   __ASM volatile ("strex %0, %2, %1" : "=&r" (result), "=Q" (*addr) : "r" (value) );
 8002a90:	69b9      	ldr	r1, [r7, #24]
 8002a92:	69fa      	ldr	r2, [r7, #28]
 8002a94:	e841 2300 	strex	r3, r2, [r1]
 8002a98:	617b      	str	r3, [r7, #20]
   return(result);
 8002a9a:	697b      	ldr	r3, [r7, #20]
 8002a9c:	2b00      	cmp	r3, #0
 8002a9e:	d1e3      	bne.n	8002a68 <HAL_UART_IRQHandler+0x488>

        /* Initialize type of RxEvent that correspond to RxEvent callback execution;
           In this case, Rx Event type is Idle Event */
        huart->RxEventType = HAL_UART_RXEVENT_IDLE;
 8002aa0:	687b      	ldr	r3, [r7, #4]
 8002aa2:	2202      	movs	r2, #2
 8002aa4:	635a      	str	r2, [r3, #52]	; 0x34
#if (USE_HAL_UART_REGISTER_CALLBACKS == 1)
        /*Call registered Rx complete callback*/
        huart->RxEventCallback(huart, nb_rx_data);
#else
        /*Call legacy weak Rx Event callback*/
        HAL_UARTEx_RxEventCallback(huart, nb_rx_data);
 8002aa6:	f8b7 30ce 	ldrh.w	r3, [r7, #206]	; 0xce
 8002aaa:	4619      	mov	r1, r3
 8002aac:	6878      	ldr	r0, [r7, #4]
 8002aae:	f000 f844 	bl	8002b3a <HAL_UARTEx_RxEventCallback>
#endif /* USE_HAL_UART_REGISTER_CALLBACKS */
      }
      return;
 8002ab2:	e023      	b.n	8002afc <HAL_UART_IRQHandler+0x51c>
    }
  }

  /* UART in mode Transmitter ------------------------------------------------*/
  if (((isrflags & USART_SR_TXE) != RESET) && ((cr1its & USART_CR1_TXEIE) != RESET))
 8002ab4:	f8d7 30e4 	ldr.w	r3, [r7, #228]	; 0xe4
 8002ab8:	f003 0380 	and.w	r3, r3, #128	; 0x80
 8002abc:	2b00      	cmp	r3, #0
 8002abe:	d009      	beq.n	8002ad4 <HAL_UART_IRQHandler+0x4f4>
 8002ac0:	f8d7 30e0 	ldr.w	r3, [r7, #224]	; 0xe0
 8002ac4:	f003 0380 	and.w	r3, r3, #128	; 0x80
 8002ac8:	2b00      	cmp	r3, #0
 8002aca:	d003      	beq.n	8002ad4 <HAL_UART_IRQHandler+0x4f4>
  {
    UART_Transmit_IT(huart);
 8002acc:	6878      	ldr	r0, [r7, #4]
 8002ace:	f000 f923 	bl	8002d18 <UART_Transmit_IT>
    return;
 8002ad2:	e014      	b.n	8002afe <HAL_UART_IRQHandler+0x51e>
  }

  /* UART in mode Transmitter end --------------------------------------------*/
  if (((isrflags & USART_SR_TC) != RESET) && ((cr1its & USART_CR1_TCIE) != RESET))
 8002ad4:	f8d7 30e4 	ldr.w	r3, [r7, #228]	; 0xe4
 8002ad8:	f003 0340 	and.w	r3, r3, #64	; 0x40
 8002adc:	2b00      	cmp	r3, #0
 8002ade:	d00e      	beq.n	8002afe <HAL_UART_IRQHandler+0x51e>
 8002ae0:	f8d7 30e0 	ldr.w	r3, [r7, #224]	; 0xe0
 8002ae4:	f003 0340 	and.w	r3, r3, #64	; 0x40
 8002ae8:	2b00      	cmp	r3, #0
 8002aea:	d008      	beq.n	8002afe <HAL_UART_IRQHandler+0x51e>
  {
    UART_EndTransmit_IT(huart);
 8002aec:	6878      	ldr	r0, [r7, #4]
 8002aee:	f000 f962 	bl	8002db6 <UART_EndTransmit_IT>
    return;
 8002af2:	e004      	b.n	8002afe <HAL_UART_IRQHandler+0x51e>
    return;
 8002af4:	bf00      	nop
 8002af6:	e002      	b.n	8002afe <HAL_UART_IRQHandler+0x51e>
      return;
 8002af8:	bf00      	nop
 8002afa:	e000      	b.n	8002afe <HAL_UART_IRQHandler+0x51e>
      return;
 8002afc:	bf00      	nop
  }
}
 8002afe:	37e8      	adds	r7, #232	; 0xe8
 8002b00:	46bd      	mov	sp, r7
 8002b02:	bd80      	pop	{r7, pc}

08002b04 <HAL_UART_TxCpltCallback>:
  * @param  huart  Pointer to a UART_HandleTypeDef structure that contains
  *                the configuration information for the specified UART module.
  * @retval None
  */
__weak void HAL_UART_TxCpltCallback(UART_HandleTypeDef *huart)
{
 8002b04:	b480      	push	{r7}
 8002b06:	b083      	sub	sp, #12
 8002b08:	af00      	add	r7, sp, #0
 8002b0a:	6078      	str	r0, [r7, #4]
  /* Prevent unused argument(s) compilation warning */
  UNUSED(huart);
  /* NOTE: This function should not be modified, when the callback is needed,
           the HAL_UART_TxCpltCallback could be implemented in the user file
   */
}
 8002b0c:	bf00      	nop
 8002b0e:	370c      	adds	r7, #12
 8002b10:	46bd      	mov	sp, r7
 8002b12:	bc80      	pop	{r7}
 8002b14:	4770      	bx	lr

08002b16 <HAL_UART_RxCpltCallback>:
  * @param  huart  Pointer to a UART_HandleTypeDef structure that contains
  *                the configuration information for the specified UART module.
  * @retval None
  */
__weak void HAL_UART_RxCpltCallback(UART_HandleTypeDef *huart)
{
 8002b16:	b480      	push	{r7}
 8002b18:	b083      	sub	sp, #12
 8002b1a:	af00      	add	r7, sp, #0
 8002b1c:	6078      	str	r0, [r7, #4]
  /* Prevent unused argument(s) compilation warning */
  UNUSED(huart);
  /* NOTE: This function should not be modified, when the callback is needed,
           the HAL_UART_RxCpltCallback could be implemented in the user file
   */
}
 8002b1e:	bf00      	nop
 8002b20:	370c      	adds	r7, #12
 8002b22:	46bd      	mov	sp, r7
 8002b24:	bc80      	pop	{r7}
 8002b26:	4770      	bx	lr

08002b28 <HAL_UART_ErrorCallback>:
  * @param  huart  Pointer to a UART_HandleTypeDef structure that contains
  *                the configuration information for the specified UART module.
  * @retval None
  */
__weak void HAL_UART_ErrorCallback(UART_HandleTypeDef *huart)
{
 8002b28:	b480      	push	{r7}
 8002b2a:	b083      	sub	sp, #12
 8002b2c:	af00      	add	r7, sp, #0
 8002b2e:	6078      	str	r0, [r7, #4]
  /* Prevent unused argument(s) compilation warning */
  UNUSED(huart);
  /* NOTE: This function should not be modified, when the callback is needed,
           the HAL_UART_ErrorCallback could be implemented in the user file
   */
}
 8002b30:	bf00      	nop
 8002b32:	370c      	adds	r7, #12
 8002b34:	46bd      	mov	sp, r7
 8002b36:	bc80      	pop	{r7}
 8002b38:	4770      	bx	lr

08002b3a <HAL_UARTEx_RxEventCallback>:
  * @param  Size  Number of data available in application reception buffer (indicates a position in
  *               reception buffer until which, data are available)
  * @retval None
  */
__weak void HAL_UARTEx_RxEventCallback(UART_HandleTypeDef *huart, uint16_t Size)
{
 8002b3a:	b480      	push	{r7}
 8002b3c:	b083      	sub	sp, #12
 8002b3e:	af00      	add	r7, sp, #0
 8002b40:	6078      	str	r0, [r7, #4]
 8002b42:	460b      	mov	r3, r1
 8002b44:	807b      	strh	r3, [r7, #2]
  UNUSED(Size);

  /* NOTE : This function should not be modified, when the callback is needed,
            the HAL_UARTEx_RxEventCallback can be implemented in the user file.
   */
}
 8002b46:	bf00      	nop
 8002b48:	370c      	adds	r7, #12
 8002b4a:	46bd      	mov	sp, r7
 8002b4c:	bc80      	pop	{r7}
 8002b4e:	4770      	bx	lr

08002b50 <UART_WaitOnFlagUntilTimeout>:
  * @param  Timeout Timeout duration
  * @retval HAL status
  */
static HAL_StatusTypeDef UART_WaitOnFlagUntilTimeout(UART_HandleTypeDef *huart, uint32_t Flag, FlagStatus Status,
                                                     uint32_t Tickstart, uint32_t Timeout)
{
 8002b50:	b580      	push	{r7, lr}
 8002b52:	b090      	sub	sp, #64	; 0x40
 8002b54:	af00      	add	r7, sp, #0
 8002b56:	60f8      	str	r0, [r7, #12]
 8002b58:	60b9      	str	r1, [r7, #8]
 8002b5a:	603b      	str	r3, [r7, #0]
 8002b5c:	4613      	mov	r3, r2
 8002b5e:	71fb      	strb	r3, [r7, #7]
  /* Wait until flag is set */
  while ((__HAL_UART_GET_FLAG(huart, Flag) ? SET : RESET) == Status)
 8002b60:	e050      	b.n	8002c04 <UART_WaitOnFlagUntilTimeout+0xb4>
  {
    /* Check for the Timeout */
    if (Timeout != HAL_MAX_DELAY)
 8002b62:	6cbb      	ldr	r3, [r7, #72]	; 0x48
 8002b64:	f1b3 3fff 	cmp.w	r3, #4294967295
 8002b68:	d04c      	beq.n	8002c04 <UART_WaitOnFlagUntilTimeout+0xb4>
    {
      if ((Timeout == 0U) || ((HAL_GetTick() - Tickstart) > Timeout))
 8002b6a:	6cbb      	ldr	r3, [r7, #72]	; 0x48
 8002b6c:	2b00      	cmp	r3, #0
 8002b6e:	d007      	beq.n	8002b80 <UART_WaitOnFlagUntilTimeout+0x30>
 8002b70:	f7fe f86a 	bl	8000c48 <HAL_GetTick>
 8002b74:	4602      	mov	r2, r0
 8002b76:	683b      	ldr	r3, [r7, #0]
 8002b78:	1ad3      	subs	r3, r2, r3
 8002b7a:	6cba      	ldr	r2, [r7, #72]	; 0x48
 8002b7c:	429a      	cmp	r2, r3
 8002b7e:	d241      	bcs.n	8002c04 <UART_WaitOnFlagUntilTimeout+0xb4>
      {
        /* Disable TXE, RXNE, PE and ERR (Frame error, noise error, overrun error) interrupts for the interrupt process */
        ATOMIC_CLEAR_BIT(huart->Instance->CR1, (USART_CR1_RXNEIE | USART_CR1_PEIE | USART_CR1_TXEIE));
 8002b80:	68fb      	ldr	r3, [r7, #12]
 8002b82:	681b      	ldr	r3, [r3, #0]
 8002b84:	330c      	adds	r3, #12
 8002b86:	62bb      	str	r3, [r7, #40]	; 0x28
   __ASM volatile ("ldrex %0, %1" : "=r" (result) : "Q" (*addr) );
 8002b88:	6abb      	ldr	r3, [r7, #40]	; 0x28
 8002b8a:	e853 3f00 	ldrex	r3, [r3]
 8002b8e:	627b      	str	r3, [r7, #36]	; 0x24
   return(result);
 8002b90:	6a7b      	ldr	r3, [r7, #36]	; 0x24
 8002b92:	f423 73d0 	bic.w	r3, r3, #416	; 0x1a0
 8002b96:	63fb      	str	r3, [r7, #60]	; 0x3c
 8002b98:	68fb      	ldr	r3, [r7, #12]
 8002b9a:	681b      	ldr	r3, [r3, #0]
 8002b9c:	330c      	adds	r3, #12
 8002b9e:	6bfa      	ldr	r2, [r7, #60]	; 0x3c
 8002ba0:	637a      	str	r2, [r7, #52]	; 0x34
 8002ba2:	633b      	str	r3, [r7, #48]	; 0x30
   __ASM volatile ("strex %0, %2, %1" : "=&r" (result), "=Q" (*addr) : "r" (value) );
 8002ba4:	6b39      	ldr	r1, [r7, #48]	; 0x30
 8002ba6:	6b7a      	ldr	r2, [r7, #52]	; 0x34
 8002ba8:	e841 2300 	strex	r3, r2, [r1]
 8002bac:	62fb      	str	r3, [r7, #44]	; 0x2c
   return(result);
 8002bae:	6afb      	ldr	r3, [r7, #44]	; 0x2c
 8002bb0:	2b00      	cmp	r3, #0
 8002bb2:	d1e5      	bne.n	8002b80 <UART_WaitOnFlagUntilTimeout+0x30>
        ATOMIC_CLEAR_BIT(huart->Instance->CR3, USART_CR3_EIE);
 8002bb4:	68fb      	ldr	r3, [r7, #12]
 8002bb6:	681b      	ldr	r3, [r3, #0]
 8002bb8:	3314      	adds	r3, #20
 8002bba:	617b      	str	r3, [r7, #20]
   __ASM volatile ("ldrex %0, %1" : "=r" (result) : "Q" (*addr) );
 8002bbc:	697b      	ldr	r3, [r7, #20]
 8002bbe:	e853 3f00 	ldrex	r3, [r3]
 8002bc2:	613b      	str	r3, [r7, #16]
   return(result);
 8002bc4:	693b      	ldr	r3, [r7, #16]
 8002bc6:	f023 0301 	bic.w	r3, r3, #1
 8002bca:	63bb      	str	r3, [r7, #56]	; 0x38
 8002bcc:	68fb      	ldr	r3, [r7, #12]
 8002bce:	681b      	ldr	r3, [r3, #0]
 8002bd0:	3314      	adds	r3, #20
 8002bd2:	6bba      	ldr	r2, [r7, #56]	; 0x38
 8002bd4:	623a      	str	r2, [r7, #32]
 8002bd6:	61fb      	str	r3, [r7, #28]
   __ASM volatile ("strex %0, %2, %1" : "=&r" (result), "=Q" (*addr) : "r" (value) );
 8002bd8:	69f9      	ldr	r1, [r7, #28]
 8002bda:	6a3a      	ldr	r2, [r7, #32]
 8002bdc:	e841 2300 	strex	r3, r2, [r1]
 8002be0:	61bb      	str	r3, [r7, #24]
   return(result);
 8002be2:	69bb      	ldr	r3, [r7, #24]
 8002be4:	2b00      	cmp	r3, #0
 8002be6:	d1e5      	bne.n	8002bb4 <UART_WaitOnFlagUntilTimeout+0x64>

        huart->gState  = HAL_UART_STATE_READY;
 8002be8:	68fb      	ldr	r3, [r7, #12]
 8002bea:	2220      	movs	r2, #32
 8002bec:	f883 2041 	strb.w	r2, [r3, #65]	; 0x41
        huart->RxState = HAL_UART_STATE_READY;
 8002bf0:	68fb      	ldr	r3, [r7, #12]
 8002bf2:	2220      	movs	r2, #32
 8002bf4:	f883 2042 	strb.w	r2, [r3, #66]	; 0x42

        /* Process Unlocked */
        __HAL_UNLOCK(huart);
 8002bf8:	68fb      	ldr	r3, [r7, #12]
 8002bfa:	2200      	movs	r2, #0
 8002bfc:	f883 2040 	strb.w	r2, [r3, #64]	; 0x40

        return HAL_TIMEOUT;
 8002c00:	2303      	movs	r3, #3
 8002c02:	e00f      	b.n	8002c24 <UART_WaitOnFlagUntilTimeout+0xd4>
  while ((__HAL_UART_GET_FLAG(huart, Flag) ? SET : RESET) == Status)
 8002c04:	68fb      	ldr	r3, [r7, #12]
 8002c06:	681b      	ldr	r3, [r3, #0]
 8002c08:	681a      	ldr	r2, [r3, #0]
 8002c0a:	68bb      	ldr	r3, [r7, #8]
 8002c0c:	4013      	ands	r3, r2
 8002c0e:	68ba      	ldr	r2, [r7, #8]
 8002c10:	429a      	cmp	r2, r3
 8002c12:	bf0c      	ite	eq
 8002c14:	2301      	moveq	r3, #1
 8002c16:	2300      	movne	r3, #0
 8002c18:	b2db      	uxtb	r3, r3
 8002c1a:	461a      	mov	r2, r3
 8002c1c:	79fb      	ldrb	r3, [r7, #7]
 8002c1e:	429a      	cmp	r2, r3
 8002c20:	d09f      	beq.n	8002b62 <UART_WaitOnFlagUntilTimeout+0x12>
      }
    }
  }
  return HAL_OK;
 8002c22:	2300      	movs	r3, #0
}
 8002c24:	4618      	mov	r0, r3
 8002c26:	3740      	adds	r7, #64	; 0x40
 8002c28:	46bd      	mov	sp, r7
 8002c2a:	bd80      	pop	{r7, pc}

08002c2c <UART_EndRxTransfer>:
  * @brief  End ongoing Rx transfer on UART peripheral (following error detection or Reception completion).
  * @param  huart UART handle.
  * @retval None
  */
static void UART_EndRxTransfer(UART_HandleTypeDef *huart)
{
 8002c2c:	b480      	push	{r7}
 8002c2e:	b095      	sub	sp, #84	; 0x54
 8002c30:	af00      	add	r7, sp, #0
 8002c32:	6078      	str	r0, [r7, #4]
  /* Disable RXNE, PE and ERR (Frame error, noise error, overrun error) interrupts */
  ATOMIC_CLEAR_BIT(huart->Instance->CR1, (USART_CR1_RXNEIE | USART_CR1_PEIE));
 8002c34:	687b      	ldr	r3, [r7, #4]
 8002c36:	681b      	ldr	r3, [r3, #0]
 8002c38:	330c      	adds	r3, #12
 8002c3a:	637b      	str	r3, [r7, #52]	; 0x34
   __ASM volatile ("ldrex %0, %1" : "=r" (result) : "Q" (*addr) );
 8002c3c:	6b7b      	ldr	r3, [r7, #52]	; 0x34
 8002c3e:	e853 3f00 	ldrex	r3, [r3]
 8002c42:	633b      	str	r3, [r7, #48]	; 0x30
   return(result);
 8002c44:	6b3b      	ldr	r3, [r7, #48]	; 0x30
 8002c46:	f423 7390 	bic.w	r3, r3, #288	; 0x120
 8002c4a:	64fb      	str	r3, [r7, #76]	; 0x4c
 8002c4c:	687b      	ldr	r3, [r7, #4]
 8002c4e:	681b      	ldr	r3, [r3, #0]
 8002c50:	330c      	adds	r3, #12
 8002c52:	6cfa      	ldr	r2, [r7, #76]	; 0x4c
 8002c54:	643a      	str	r2, [r7, #64]	; 0x40
 8002c56:	63fb      	str	r3, [r7, #60]	; 0x3c
   __ASM volatile ("strex %0, %2, %1" : "=&r" (result), "=Q" (*addr) : "r" (value) );
 8002c58:	6bf9      	ldr	r1, [r7, #60]	; 0x3c
 8002c5a:	6c3a      	ldr	r2, [r7, #64]	; 0x40
 8002c5c:	e841 2300 	strex	r3, r2, [r1]
 8002c60:	63bb      	str	r3, [r7, #56]	; 0x38
   return(result);
 8002c62:	6bbb      	ldr	r3, [r7, #56]	; 0x38
 8002c64:	2b00      	cmp	r3, #0
 8002c66:	d1e5      	bne.n	8002c34 <UART_EndRxTransfer+0x8>
  ATOMIC_CLEAR_BIT(huart->Instance->CR3, USART_CR3_EIE);
 8002c68:	687b      	ldr	r3, [r7, #4]
 8002c6a:	681b      	ldr	r3, [r3, #0]
 8002c6c:	3314      	adds	r3, #20
 8002c6e:	623b      	str	r3, [r7, #32]
   __ASM volatile ("ldrex %0, %1" : "=r" (result) : "Q" (*addr) );
 8002c70:	6a3b      	ldr	r3, [r7, #32]
 8002c72:	e853 3f00 	ldrex	r3, [r3]
 8002c76:	61fb      	str	r3, [r7, #28]
   return(result);
 8002c78:	69fb      	ldr	r3, [r7, #28]
 8002c7a:	f023 0301 	bic.w	r3, r3, #1
 8002c7e:	64bb      	str	r3, [r7, #72]	; 0x48
 8002c80:	687b      	ldr	r3, [r7, #4]
 8002c82:	681b      	ldr	r3, [r3, #0]
 8002c84:	3314      	adds	r3, #20
 8002c86:	6cba      	ldr	r2, [r7, #72]	; 0x48
 8002c88:	62fa      	str	r2, [r7, #44]	; 0x2c
 8002c8a:	62bb      	str	r3, [r7, #40]	; 0x28
   __ASM volatile ("strex %0, %2, %1" : "=&r" (result), "=Q" (*addr) : "r" (value) );
 8002c8c:	6ab9      	ldr	r1, [r7, #40]	; 0x28
 8002c8e:	6afa      	ldr	r2, [r7, #44]	; 0x2c
 8002c90:	e841 2300 	strex	r3, r2, [r1]
 8002c94:	627b      	str	r3, [r7, #36]	; 0x24
   return(result);
 8002c96:	6a7b      	ldr	r3, [r7, #36]	; 0x24
 8002c98:	2b00      	cmp	r3, #0
 8002c9a:	d1e5      	bne.n	8002c68 <UART_EndRxTransfer+0x3c>

  /* In case of reception waiting for IDLE event, disable also the IDLE IE interrupt source */
  if (huart->ReceptionType == HAL_UART_RECEPTION_TOIDLE)
 8002c9c:	687b      	ldr	r3, [r7, #4]
 8002c9e:	6b1b      	ldr	r3, [r3, #48]	; 0x30
 8002ca0:	2b01      	cmp	r3, #1
 8002ca2:	d119      	bne.n	8002cd8 <UART_EndRxTransfer+0xac>
  {
    ATOMIC_CLEAR_BIT(huart->Instance->CR1, USART_CR1_IDLEIE);
 8002ca4:	687b      	ldr	r3, [r7, #4]
 8002ca6:	681b      	ldr	r3, [r3, #0]
 8002ca8:	330c      	adds	r3, #12
 8002caa:	60fb      	str	r3, [r7, #12]
   __ASM volatile ("ldrex %0, %1" : "=r" (result) : "Q" (*addr) );
 8002cac:	68fb      	ldr	r3, [r7, #12]
 8002cae:	e853 3f00 	ldrex	r3, [r3]
 8002cb2:	60bb      	str	r3, [r7, #8]
   return(result);
 8002cb4:	68bb      	ldr	r3, [r7, #8]
 8002cb6:	f023 0310 	bic.w	r3, r3, #16
 8002cba:	647b      	str	r3, [r7, #68]	; 0x44
 8002cbc:	687b      	ldr	r3, [r7, #4]
 8002cbe:	681b      	ldr	r3, [r3, #0]
 8002cc0:	330c      	adds	r3, #12
 8002cc2:	6c7a      	ldr	r2, [r7, #68]	; 0x44
 8002cc4:	61ba      	str	r2, [r7, #24]
 8002cc6:	617b      	str	r3, [r7, #20]
   __ASM volatile ("strex %0, %2, %1" : "=&r" (result), "=Q" (*addr) : "r" (value) );
 8002cc8:	6979      	ldr	r1, [r7, #20]
 8002cca:	69ba      	ldr	r2, [r7, #24]
 8002ccc:	e841 2300 	strex	r3, r2, [r1]
 8002cd0:	613b      	str	r3, [r7, #16]
   return(result);
 8002cd2:	693b      	ldr	r3, [r7, #16]
 8002cd4:	2b00      	cmp	r3, #0
 8002cd6:	d1e5      	bne.n	8002ca4 <UART_EndRxTransfer+0x78>
  }

  /* At end of Rx process, restore huart->RxState to Ready */
  huart->RxState = HAL_UART_STATE_READY;
 8002cd8:	687b      	ldr	r3, [r7, #4]
 8002cda:	2220      	movs	r2, #32
 8002cdc:	f883 2042 	strb.w	r2, [r3, #66]	; 0x42
  huart->ReceptionType = HAL_UART_RECEPTION_STANDARD;
 8002ce0:	687b      	ldr	r3, [r7, #4]
 8002ce2:	2200      	movs	r2, #0
 8002ce4:	631a      	str	r2, [r3, #48]	; 0x30
}
 8002ce6:	bf00      	nop
 8002ce8:	3754      	adds	r7, #84	; 0x54
 8002cea:	46bd      	mov	sp, r7
 8002cec:	bc80      	pop	{r7}
 8002cee:	4770      	bx	lr

08002cf0 <UART_DMAAbortOnError>:
  * @param  hdma  Pointer to a DMA_HandleTypeDef structure that contains
  *               the configuration information for the specified DMA module.
  * @retval None
  */
static void UART_DMAAbortOnError(DMA_HandleTypeDef *hdma)
{
 8002cf0:	b580      	push	{r7, lr}
 8002cf2:	b084      	sub	sp, #16
 8002cf4:	af00      	add	r7, sp, #0
 8002cf6:	6078      	str	r0, [r7, #4]
  UART_HandleTypeDef *huart = (UART_HandleTypeDef *)((DMA_HandleTypeDef *)hdma)->Parent;
 8002cf8:	687b      	ldr	r3, [r7, #4]
 8002cfa:	6a5b      	ldr	r3, [r3, #36]	; 0x24
 8002cfc:	60fb      	str	r3, [r7, #12]
  huart->RxXferCount = 0x00U;
 8002cfe:	68fb      	ldr	r3, [r7, #12]
 8002d00:	2200      	movs	r2, #0
 8002d02:	85da      	strh	r2, [r3, #46]	; 0x2e
  huart->TxXferCount = 0x00U;
 8002d04:	68fb      	ldr	r3, [r7, #12]
 8002d06:	2200      	movs	r2, #0
 8002d08:	84da      	strh	r2, [r3, #38]	; 0x26
#if (USE_HAL_UART_REGISTER_CALLBACKS == 1)
  /*Call registered error callback*/
  huart->ErrorCallback(huart);
#else
  /*Call legacy weak error callback*/
  HAL_UART_ErrorCallback(huart);
 8002d0a:	68f8      	ldr	r0, [r7, #12]
 8002d0c:	f7ff ff0c 	bl	8002b28 <HAL_UART_ErrorCallback>
#endif /* USE_HAL_UART_REGISTER_CALLBACKS */
}
 8002d10:	bf00      	nop
 8002d12:	3710      	adds	r7, #16
 8002d14:	46bd      	mov	sp, r7
 8002d16:	bd80      	pop	{r7, pc}

08002d18 <UART_Transmit_IT>:
  * @param  huart  Pointer to a UART_HandleTypeDef structure that contains
  *                the configuration information for the specified UART module.
  * @retval HAL status
  */
static HAL_StatusTypeDef UART_Transmit_IT(UART_HandleTypeDef *huart)
{
 8002d18:	b480      	push	{r7}
 8002d1a:	b085      	sub	sp, #20
 8002d1c:	af00      	add	r7, sp, #0
 8002d1e:	6078      	str	r0, [r7, #4]
  const uint16_t *tmp;

  /* Check that a Tx process is ongoing */
  if (huart->gState == HAL_UART_STATE_BUSY_TX)
 8002d20:	687b      	ldr	r3, [r7, #4]
 8002d22:	f893 3041 	ldrb.w	r3, [r3, #65]	; 0x41
 8002d26:	b2db      	uxtb	r3, r3
 8002d28:	2b21      	cmp	r3, #33	; 0x21
 8002d2a:	d13e      	bne.n	8002daa <UART_Transmit_IT+0x92>
  {
    if ((huart->Init.WordLength == UART_WORDLENGTH_9B) && (huart->Init.Parity == UART_PARITY_NONE))
 8002d2c:	687b      	ldr	r3, [r7, #4]
 8002d2e:	689b      	ldr	r3, [r3, #8]
 8002d30:	f5b3 5f80 	cmp.w	r3, #4096	; 0x1000
 8002d34:	d114      	bne.n	8002d60 <UART_Transmit_IT+0x48>
 8002d36:	687b      	ldr	r3, [r7, #4]
 8002d38:	691b      	ldr	r3, [r3, #16]
 8002d3a:	2b00      	cmp	r3, #0
 8002d3c:	d110      	bne.n	8002d60 <UART_Transmit_IT+0x48>
    {
      tmp = (const uint16_t *) huart->pTxBuffPtr;
 8002d3e:	687b      	ldr	r3, [r7, #4]
 8002d40:	6a1b      	ldr	r3, [r3, #32]
 8002d42:	60fb      	str	r3, [r7, #12]
      huart->Instance->DR = (uint16_t)(*tmp & (uint16_t)0x01FF);
 8002d44:	68fb      	ldr	r3, [r7, #12]
 8002d46:	881b      	ldrh	r3, [r3, #0]
 8002d48:	461a      	mov	r2, r3
 8002d4a:	687b      	ldr	r3, [r7, #4]
 8002d4c:	681b      	ldr	r3, [r3, #0]
 8002d4e:	f3c2 0208 	ubfx	r2, r2, #0, #9
 8002d52:	605a      	str	r2, [r3, #4]
      huart->pTxBuffPtr += 2U;
 8002d54:	687b      	ldr	r3, [r7, #4]
 8002d56:	6a1b      	ldr	r3, [r3, #32]
 8002d58:	1c9a      	adds	r2, r3, #2
 8002d5a:	687b      	ldr	r3, [r7, #4]
 8002d5c:	621a      	str	r2, [r3, #32]
 8002d5e:	e008      	b.n	8002d72 <UART_Transmit_IT+0x5a>
    }
    else
    {
      huart->Instance->DR = (uint8_t)(*huart->pTxBuffPtr++ & (uint8_t)0x00FF);
 8002d60:	687b      	ldr	r3, [r7, #4]
 8002d62:	6a1b      	ldr	r3, [r3, #32]
 8002d64:	1c59      	adds	r1, r3, #1
 8002d66:	687a      	ldr	r2, [r7, #4]
 8002d68:	6211      	str	r1, [r2, #32]
 8002d6a:	781a      	ldrb	r2, [r3, #0]
 8002d6c:	687b      	ldr	r3, [r7, #4]
 8002d6e:	681b      	ldr	r3, [r3, #0]
 8002d70:	605a      	str	r2, [r3, #4]
    }

    if (--huart->TxXferCount == 0U)
 8002d72:	687b      	ldr	r3, [r7, #4]
 8002d74:	8cdb      	ldrh	r3, [r3, #38]	; 0x26
 8002d76:	b29b      	uxth	r3, r3
 8002d78:	3b01      	subs	r3, #1
 8002d7a:	b29b      	uxth	r3, r3
 8002d7c:	687a      	ldr	r2, [r7, #4]
 8002d7e:	4619      	mov	r1, r3
 8002d80:	84d1      	strh	r1, [r2, #38]	; 0x26
 8002d82:	2b00      	cmp	r3, #0
 8002d84:	d10f      	bne.n	8002da6 <UART_Transmit_IT+0x8e>
    {
      /* Disable the UART Transmit Data Register Empty Interrupt */
      __HAL_UART_DISABLE_IT(huart, UART_IT_TXE);
 8002d86:	687b      	ldr	r3, [r7, #4]
 8002d88:	681b      	ldr	r3, [r3, #0]
 8002d8a:	68da      	ldr	r2, [r3, #12]
 8002d8c:	687b      	ldr	r3, [r7, #4]
 8002d8e:	681b      	ldr	r3, [r3, #0]
 8002d90:	f022 0280 	bic.w	r2, r2, #128	; 0x80
 8002d94:	60da      	str	r2, [r3, #12]

      /* Enable the UART Transmit Complete Interrupt */
      __HAL_UART_ENABLE_IT(huart, UART_IT_TC);
 8002d96:	687b      	ldr	r3, [r7, #4]
 8002d98:	681b      	ldr	r3, [r3, #0]
 8002d9a:	68da      	ldr	r2, [r3, #12]
 8002d9c:	687b      	ldr	r3, [r7, #4]
 8002d9e:	681b      	ldr	r3, [r3, #0]
 8002da0:	f042 0240 	orr.w	r2, r2, #64	; 0x40
 8002da4:	60da      	str	r2, [r3, #12]
    }
    return HAL_OK;
 8002da6:	2300      	movs	r3, #0
 8002da8:	e000      	b.n	8002dac <UART_Transmit_IT+0x94>
  }
  else
  {
    return HAL_BUSY;
 8002daa:	2302      	movs	r3, #2
  }
}
 8002dac:	4618      	mov	r0, r3
 8002dae:	3714      	adds	r7, #20
 8002db0:	46bd      	mov	sp, r7
 8002db2:	bc80      	pop	{r7}
 8002db4:	4770      	bx	lr

08002db6 <UART_EndTransmit_IT>:
  * @param  huart  Pointer to a UART_HandleTypeDef structure that contains
  *                the configuration information for the specified UART module.
  * @retval HAL status
  */
static HAL_StatusTypeDef UART_EndTransmit_IT(UART_HandleTypeDef *huart)
{
 8002db6:	b580      	push	{r7, lr}
 8002db8:	b082      	sub	sp, #8
 8002dba:	af00      	add	r7, sp, #0
 8002dbc:	6078      	str	r0, [r7, #4]
  /* Disable the UART Transmit Complete Interrupt */
  __HAL_UART_DISABLE_IT(huart, UART_IT_TC);
 8002dbe:	687b      	ldr	r3, [r7, #4]
 8002dc0:	681b      	ldr	r3, [r3, #0]
 8002dc2:	68da      	ldr	r2, [r3, #12]
 8002dc4:	687b      	ldr	r3, [r7, #4]
 8002dc6:	681b      	ldr	r3, [r3, #0]
 8002dc8:	f022 0240 	bic.w	r2, r2, #64	; 0x40
 8002dcc:	60da      	str	r2, [r3, #12]

  /* Tx process is ended, restore huart->gState to Ready */
  huart->gState = HAL_UART_STATE_READY;
 8002dce:	687b      	ldr	r3, [r7, #4]
 8002dd0:	2220      	movs	r2, #32
 8002dd2:	f883 2041 	strb.w	r2, [r3, #65]	; 0x41
#if (USE_HAL_UART_REGISTER_CALLBACKS == 1)
  /*Call registered Tx complete callback*/
  huart->TxCpltCallback(huart);
#else
  /*Call legacy weak Tx complete callback*/
  HAL_UART_TxCpltCallback(huart);
 8002dd6:	6878      	ldr	r0, [r7, #4]
 8002dd8:	f7ff fe94 	bl	8002b04 <HAL_UART_TxCpltCallback>
#endif /* USE_HAL_UART_REGISTER_CALLBACKS */

  return HAL_OK;
 8002ddc:	2300      	movs	r3, #0
}
 8002dde:	4618      	mov	r0, r3
 8002de0:	3708      	adds	r7, #8
 8002de2:	46bd      	mov	sp, r7
 8002de4:	bd80      	pop	{r7, pc}

08002de6 <UART_Receive_IT>:
  * @param  huart  Pointer to a UART_HandleTypeDef structure that contains
  *                the configuration information for the specified UART module.
  * @retval HAL status
  */
static HAL_StatusTypeDef UART_Receive_IT(UART_HandleTypeDef *huart)
{
 8002de6:	b580      	push	{r7, lr}
 8002de8:	b08c      	sub	sp, #48	; 0x30
 8002dea:	af00      	add	r7, sp, #0
 8002dec:	6078      	str	r0, [r7, #4]
  uint8_t  *pdata8bits;
  uint16_t *pdata16bits;

  /* Check that a Rx process is ongoing */
  if (huart->RxState == HAL_UART_STATE_BUSY_RX)
 8002dee:	687b      	ldr	r3, [r7, #4]
 8002df0:	f893 3042 	ldrb.w	r3, [r3, #66]	; 0x42
 8002df4:	b2db      	uxtb	r3, r3
 8002df6:	2b22      	cmp	r3, #34	; 0x22
 8002df8:	f040 80ae 	bne.w	8002f58 <UART_Receive_IT+0x172>
  {
    if ((huart->Init.WordLength == UART_WORDLENGTH_9B) && (huart->Init.Parity == UART_PARITY_NONE))
 8002dfc:	687b      	ldr	r3, [r7, #4]
 8002dfe:	689b      	ldr	r3, [r3, #8]
 8002e00:	f5b3 5f80 	cmp.w	r3, #4096	; 0x1000
 8002e04:	d117      	bne.n	8002e36 <UART_Receive_IT+0x50>
 8002e06:	687b      	ldr	r3, [r7, #4]
 8002e08:	691b      	ldr	r3, [r3, #16]
 8002e0a:	2b00      	cmp	r3, #0
 8002e0c:	d113      	bne.n	8002e36 <UART_Receive_IT+0x50>
    {
      pdata8bits  = NULL;
 8002e0e:	2300      	movs	r3, #0
 8002e10:	62fb      	str	r3, [r7, #44]	; 0x2c
      pdata16bits = (uint16_t *) huart->pRxBuffPtr;
 8002e12:	687b      	ldr	r3, [r7, #4]
 8002e14:	6a9b      	ldr	r3, [r3, #40]	; 0x28
 8002e16:	62bb      	str	r3, [r7, #40]	; 0x28
      *pdata16bits = (uint16_t)(huart->Instance->DR & (uint16_t)0x01FF);
 8002e18:	687b      	ldr	r3, [r7, #4]
 8002e1a:	681b      	ldr	r3, [r3, #0]
 8002e1c:	685b      	ldr	r3, [r3, #4]
 8002e1e:	b29b      	uxth	r3, r3
 8002e20:	f3c3 0308 	ubfx	r3, r3, #0, #9
 8002e24:	b29a      	uxth	r2, r3
 8002e26:	6abb      	ldr	r3, [r7, #40]	; 0x28
 8002e28:	801a      	strh	r2, [r3, #0]
      huart->pRxBuffPtr += 2U;
 8002e2a:	687b      	ldr	r3, [r7, #4]
 8002e2c:	6a9b      	ldr	r3, [r3, #40]	; 0x28
 8002e2e:	1c9a      	adds	r2, r3, #2
 8002e30:	687b      	ldr	r3, [r7, #4]
 8002e32:	629a      	str	r2, [r3, #40]	; 0x28
 8002e34:	e026      	b.n	8002e84 <UART_Receive_IT+0x9e>
    }
    else
    {
      pdata8bits = (uint8_t *) huart->pRxBuffPtr;
 8002e36:	687b      	ldr	r3, [r7, #4]
 8002e38:	6a9b      	ldr	r3, [r3, #40]	; 0x28
 8002e3a:	62fb      	str	r3, [r7, #44]	; 0x2c
      pdata16bits  = NULL;
 8002e3c:	2300      	movs	r3, #0
 8002e3e:	62bb      	str	r3, [r7, #40]	; 0x28

      if ((huart->Init.WordLength == UART_WORDLENGTH_9B) || ((huart->Init.WordLength == UART_WORDLENGTH_8B) && (huart->Init.Parity == UART_PARITY_NONE)))
 8002e40:	687b      	ldr	r3, [r7, #4]
 8002e42:	689b      	ldr	r3, [r3, #8]
 8002e44:	f5b3 5f80 	cmp.w	r3, #4096	; 0x1000
 8002e48:	d007      	beq.n	8002e5a <UART_Receive_IT+0x74>
 8002e4a:	687b      	ldr	r3, [r7, #4]
 8002e4c:	689b      	ldr	r3, [r3, #8]
 8002e4e:	2b00      	cmp	r3, #0
 8002e50:	d10a      	bne.n	8002e68 <UART_Receive_IT+0x82>
 8002e52:	687b      	ldr	r3, [r7, #4]
 8002e54:	691b      	ldr	r3, [r3, #16]
 8002e56:	2b00      	cmp	r3, #0
 8002e58:	d106      	bne.n	8002e68 <UART_Receive_IT+0x82>
      {
        *pdata8bits = (uint8_t)(huart->Instance->DR & (uint8_t)0x00FF);
 8002e5a:	687b      	ldr	r3, [r7, #4]
 8002e5c:	681b      	ldr	r3, [r3, #0]
 8002e5e:	685b      	ldr	r3, [r3, #4]
 8002e60:	b2da      	uxtb	r2, r3
 8002e62:	6afb      	ldr	r3, [r7, #44]	; 0x2c
 8002e64:	701a      	strb	r2, [r3, #0]
 8002e66:	e008      	b.n	8002e7a <UART_Receive_IT+0x94>
      }
      else
      {
        *pdata8bits = (uint8_t)(huart->Instance->DR & (uint8_t)0x007F);
 8002e68:	687b      	ldr	r3, [r7, #4]
 8002e6a:	681b      	ldr	r3, [r3, #0]
 8002e6c:	685b      	ldr	r3, [r3, #4]
 8002e6e:	b2db      	uxtb	r3, r3
 8002e70:	f003 037f 	and.w	r3, r3, #127	; 0x7f
 8002e74:	b2da      	uxtb	r2, r3
 8002e76:	6afb      	ldr	r3, [r7, #44]	; 0x2c
 8002e78:	701a      	strb	r2, [r3, #0]
      }
      huart->pRxBuffPtr += 1U;
 8002e7a:	687b      	ldr	r3, [r7, #4]
 8002e7c:	6a9b      	ldr	r3, [r3, #40]	; 0x28
 8002e7e:	1c5a      	adds	r2, r3, #1
 8002e80:	687b      	ldr	r3, [r7, #4]
 8002e82:	629a      	str	r2, [r3, #40]	; 0x28
    }

    if (--huart->RxXferCount == 0U)
 8002e84:	687b      	ldr	r3, [r7, #4]
 8002e86:	8ddb      	ldrh	r3, [r3, #46]	; 0x2e
 8002e88:	b29b      	uxth	r3, r3
 8002e8a:	3b01      	subs	r3, #1
 8002e8c:	b29b      	uxth	r3, r3
 8002e8e:	687a      	ldr	r2, [r7, #4]
 8002e90:	4619      	mov	r1, r3
 8002e92:	85d1      	strh	r1, [r2, #46]	; 0x2e
 8002e94:	2b00      	cmp	r3, #0
 8002e96:	d15d      	bne.n	8002f54 <UART_Receive_IT+0x16e>
    {
      /* Disable the UART Data Register not empty Interrupt */
      __HAL_UART_DISABLE_IT(huart, UART_IT_RXNE);
 8002e98:	687b      	ldr	r3, [r7, #4]
 8002e9a:	681b      	ldr	r3, [r3, #0]
 8002e9c:	68da      	ldr	r2, [r3, #12]
 8002e9e:	687b      	ldr	r3, [r7, #4]
 8002ea0:	681b      	ldr	r3, [r3, #0]
 8002ea2:	f022 0220 	bic.w	r2, r2, #32
 8002ea6:	60da      	str	r2, [r3, #12]

      /* Disable the UART Parity Error Interrupt */
      __HAL_UART_DISABLE_IT(huart, UART_IT_PE);
 8002ea8:	687b      	ldr	r3, [r7, #4]
 8002eaa:	681b      	ldr	r3, [r3, #0]
 8002eac:	68da      	ldr	r2, [r3, #12]
 8002eae:	687b      	ldr	r3, [r7, #4]
 8002eb0:	681b      	ldr	r3, [r3, #0]
 8002eb2:	f422 7280 	bic.w	r2, r2, #256	; 0x100
 8002eb6:	60da      	str	r2, [r3, #12]

      /* Disable the UART Error Interrupt: (Frame error, noise error, overrun error) */
      __HAL_UART_DISABLE_IT(huart, UART_IT_ERR);
 8002eb8:	687b      	ldr	r3, [r7, #4]
 8002eba:	681b      	ldr	r3, [r3, #0]
 8002ebc:	695a      	ldr	r2, [r3, #20]
 8002ebe:	687b      	ldr	r3, [r7, #4]
 8002ec0:	681b      	ldr	r3, [r3, #0]
 8002ec2:	f022 0201 	bic.w	r2, r2, #1
 8002ec6:	615a      	str	r2, [r3, #20]

      /* Rx process is completed, restore huart->RxState to Ready */
      huart->RxState = HAL_UART_STATE_READY;
 8002ec8:	687b      	ldr	r3, [r7, #4]
 8002eca:	2220      	movs	r2, #32
 8002ecc:	f883 2042 	strb.w	r2, [r3, #66]	; 0x42

      /* Initialize type of RxEvent to Transfer Complete */
      huart->RxEventType = HAL_UART_RXEVENT_TC;
 8002ed0:	687b      	ldr	r3, [r7, #4]
 8002ed2:	2200      	movs	r2, #0
 8002ed4:	635a      	str	r2, [r3, #52]	; 0x34

      /* Check current reception Mode :
         If Reception till IDLE event has been selected : */
      if (huart->ReceptionType == HAL_UART_RECEPTION_TOIDLE)
 8002ed6:	687b      	ldr	r3, [r7, #4]
 8002ed8:	6b1b      	ldr	r3, [r3, #48]	; 0x30
 8002eda:	2b01      	cmp	r3, #1
 8002edc:	d135      	bne.n	8002f4a <UART_Receive_IT+0x164>
      {
        /* Set reception type to Standard */
        huart->ReceptionType = HAL_UART_RECEPTION_STANDARD;
 8002ede:	687b      	ldr	r3, [r7, #4]
 8002ee0:	2200      	movs	r2, #0
 8002ee2:	631a      	str	r2, [r3, #48]	; 0x30

        /* Disable IDLE interrupt */
        ATOMIC_CLEAR_BIT(huart->Instance->CR1, USART_CR1_IDLEIE);
 8002ee4:	687b      	ldr	r3, [r7, #4]
 8002ee6:	681b      	ldr	r3, [r3, #0]
 8002ee8:	330c      	adds	r3, #12
 8002eea:	617b      	str	r3, [r7, #20]
   __ASM volatile ("ldrex %0, %1" : "=r" (result) : "Q" (*addr) );
 8002eec:	697b      	ldr	r3, [r7, #20]
 8002eee:	e853 3f00 	ldrex	r3, [r3]
 8002ef2:	613b      	str	r3, [r7, #16]
   return(result);
 8002ef4:	693b      	ldr	r3, [r7, #16]
 8002ef6:	f023 0310 	bic.w	r3, r3, #16
 8002efa:	627b      	str	r3, [r7, #36]	; 0x24
 8002efc:	687b      	ldr	r3, [r7, #4]
 8002efe:	681b      	ldr	r3, [r3, #0]
 8002f00:	330c      	adds	r3, #12
 8002f02:	6a7a      	ldr	r2, [r7, #36]	; 0x24
 8002f04:	623a      	str	r2, [r7, #32]
 8002f06:	61fb      	str	r3, [r7, #28]
   __ASM volatile ("strex %0, %2, %1" : "=&r" (result), "=Q" (*addr) : "r" (value) );
 8002f08:	69f9      	ldr	r1, [r7, #28]
 8002f0a:	6a3a      	ldr	r2, [r7, #32]
 8002f0c:	e841 2300 	strex	r3, r2, [r1]
 8002f10:	61bb      	str	r3, [r7, #24]
   return(result);
 8002f12:	69bb      	ldr	r3, [r7, #24]
 8002f14:	2b00      	cmp	r3, #0
 8002f16:	d1e5      	bne.n	8002ee4 <UART_Receive_IT+0xfe>

        /* Check if IDLE flag is set */
        if (__HAL_UART_GET_FLAG(huart, UART_FLAG_IDLE))
 8002f18:	687b      	ldr	r3, [r7, #4]
 8002f1a:	681b      	ldr	r3, [r3, #0]
 8002f1c:	681b      	ldr	r3, [r3, #0]
 8002f1e:	f003 0310 	and.w	r3, r3, #16
 8002f22:	2b10      	cmp	r3, #16
 8002f24:	d10a      	bne.n	8002f3c <UART_Receive_IT+0x156>
        {
          /* Clear IDLE flag in ISR */
          __HAL_UART_CLEAR_IDLEFLAG(huart);
 8002f26:	2300      	movs	r3, #0
 8002f28:	60fb      	str	r3, [r7, #12]
 8002f2a:	687b      	ldr	r3, [r7, #4]
 8002f2c:	681b      	ldr	r3, [r3, #0]
 8002f2e:	681b      	ldr	r3, [r3, #0]
 8002f30:	60fb      	str	r3, [r7, #12]
 8002f32:	687b      	ldr	r3, [r7, #4]
 8002f34:	681b      	ldr	r3, [r3, #0]
 8002f36:	685b      	ldr	r3, [r3, #4]
 8002f38:	60fb      	str	r3, [r7, #12]
 8002f3a:	68fb      	ldr	r3, [r7, #12]
#if (USE_HAL_UART_REGISTER_CALLBACKS == 1)
        /*Call registered Rx Event callback*/
        huart->RxEventCallback(huart, huart->RxXferSize);
#else
        /*Call legacy weak Rx Event callback*/
        HAL_UARTEx_RxEventCallback(huart, huart->RxXferSize);
 8002f3c:	687b      	ldr	r3, [r7, #4]
 8002f3e:	8d9b      	ldrh	r3, [r3, #44]	; 0x2c
 8002f40:	4619      	mov	r1, r3
 8002f42:	6878      	ldr	r0, [r7, #4]
 8002f44:	f7ff fdf9 	bl	8002b3a <HAL_UARTEx_RxEventCallback>
 8002f48:	e002      	b.n	8002f50 <UART_Receive_IT+0x16a>
#if (USE_HAL_UART_REGISTER_CALLBACKS == 1)
        /*Call registered Rx complete callback*/
        huart->RxCpltCallback(huart);
#else
        /*Call legacy weak Rx complete callback*/
        HAL_UART_RxCpltCallback(huart);
 8002f4a:	6878      	ldr	r0, [r7, #4]
 8002f4c:	f7ff fde3 	bl	8002b16 <HAL_UART_RxCpltCallback>
#endif /* USE_HAL_UART_REGISTER_CALLBACKS */
      }

      return HAL_OK;
 8002f50:	2300      	movs	r3, #0
 8002f52:	e002      	b.n	8002f5a <UART_Receive_IT+0x174>
    }
    return HAL_OK;
 8002f54:	2300      	movs	r3, #0
 8002f56:	e000      	b.n	8002f5a <UART_Receive_IT+0x174>
  }
  else
  {
    return HAL_BUSY;
 8002f58:	2302      	movs	r3, #2
  }
}
 8002f5a:	4618      	mov	r0, r3
 8002f5c:	3730      	adds	r7, #48	; 0x30
 8002f5e:	46bd      	mov	sp, r7
 8002f60:	bd80      	pop	{r7, pc}
	...

08002f64 <UART_SetConfig>:
  * @param  huart  Pointer to a UART_HandleTypeDef structure that contains
  *                the configuration information for the specified UART module.
  * @retval None
  */
static void UART_SetConfig(UART_HandleTypeDef *huart)
{
 8002f64:	b580      	push	{r7, lr}
 8002f66:	b084      	sub	sp, #16
 8002f68:	af00      	add	r7, sp, #0
 8002f6a:	6078      	str	r0, [r7, #4]
  assert_param(IS_UART_MODE(huart->Init.Mode));

  /*-------------------------- USART CR2 Configuration -----------------------*/
  /* Configure the UART Stop Bits: Set STOP[13:12] bits
     according to huart->Init.StopBits value */
  MODIFY_REG(huart->Instance->CR2, USART_CR2_STOP, huart->Init.StopBits);
 8002f6c:	687b      	ldr	r3, [r7, #4]
 8002f6e:	681b      	ldr	r3, [r3, #0]
 8002f70:	691b      	ldr	r3, [r3, #16]
 8002f72:	f423 5140 	bic.w	r1, r3, #12288	; 0x3000
 8002f76:	687b      	ldr	r3, [r7, #4]
 8002f78:	68da      	ldr	r2, [r3, #12]
 8002f7a:	687b      	ldr	r3, [r7, #4]
 8002f7c:	681b      	ldr	r3, [r3, #0]
 8002f7e:	430a      	orrs	r2, r1
 8002f80:	611a      	str	r2, [r3, #16]
  tmpreg = (uint32_t)huart->Init.WordLength | huart->Init.Parity | huart->Init.Mode | huart->Init.OverSampling;
  MODIFY_REG(huart->Instance->CR1,
             (uint32_t)(USART_CR1_M | USART_CR1_PCE | USART_CR1_PS | USART_CR1_TE | USART_CR1_RE | USART_CR1_OVER8),
             tmpreg);
#else
  tmpreg = (uint32_t)huart->Init.WordLength | huart->Init.Parity | huart->Init.Mode;
 8002f82:	687b      	ldr	r3, [r7, #4]
 8002f84:	689a      	ldr	r2, [r3, #8]
 8002f86:	687b      	ldr	r3, [r7, #4]
 8002f88:	691b      	ldr	r3, [r3, #16]
 8002f8a:	431a      	orrs	r2, r3
 8002f8c:	687b      	ldr	r3, [r7, #4]
 8002f8e:	695b      	ldr	r3, [r3, #20]
 8002f90:	4313      	orrs	r3, r2
 8002f92:	60bb      	str	r3, [r7, #8]
  MODIFY_REG(huart->Instance->CR1,
 8002f94:	687b      	ldr	r3, [r7, #4]
 8002f96:	681b      	ldr	r3, [r3, #0]
 8002f98:	68db      	ldr	r3, [r3, #12]
 8002f9a:	f423 53b0 	bic.w	r3, r3, #5632	; 0x1600
 8002f9e:	f023 030c 	bic.w	r3, r3, #12
 8002fa2:	687a      	ldr	r2, [r7, #4]
 8002fa4:	6812      	ldr	r2, [r2, #0]
 8002fa6:	68b9      	ldr	r1, [r7, #8]
 8002fa8:	430b      	orrs	r3, r1
 8002faa:	60d3      	str	r3, [r2, #12]
             tmpreg);
#endif /* USART_CR1_OVER8 */

  /*-------------------------- USART CR3 Configuration -----------------------*/
  /* Configure the UART HFC: Set CTSE and RTSE bits according to huart->Init.HwFlowCtl value */
  MODIFY_REG(huart->Instance->CR3, (USART_CR3_RTSE | USART_CR3_CTSE), huart->Init.HwFlowCtl);
 8002fac:	687b      	ldr	r3, [r7, #4]
 8002fae:	681b      	ldr	r3, [r3, #0]
 8002fb0:	695b      	ldr	r3, [r3, #20]
 8002fb2:	f423 7140 	bic.w	r1, r3, #768	; 0x300
 8002fb6:	687b      	ldr	r3, [r7, #4]
 8002fb8:	699a      	ldr	r2, [r3, #24]
 8002fba:	687b      	ldr	r3, [r7, #4]
 8002fbc:	681b      	ldr	r3, [r3, #0]
 8002fbe:	430a      	orrs	r2, r1
 8002fc0:	615a      	str	r2, [r3, #20]


  if(huart->Instance == USART1)
 8002fc2:	687b      	ldr	r3, [r7, #4]
 8002fc4:	681b      	ldr	r3, [r3, #0]
 8002fc6:	4a2c      	ldr	r2, [pc, #176]	; (8003078 <UART_SetConfig+0x114>)
 8002fc8:	4293      	cmp	r3, r2
 8002fca:	d103      	bne.n	8002fd4 <UART_SetConfig+0x70>
  {
    pclk = HAL_RCC_GetPCLK2Freq();
 8002fcc:	f7fe fe1a 	bl	8001c04 <HAL_RCC_GetPCLK2Freq>
 8002fd0:	60f8      	str	r0, [r7, #12]
 8002fd2:	e002      	b.n	8002fda <UART_SetConfig+0x76>
  }
  else
  {
    pclk = HAL_RCC_GetPCLK1Freq();
 8002fd4:	f7fe fe02 	bl	8001bdc <HAL_RCC_GetPCLK1Freq>
 8002fd8:	60f8      	str	r0, [r7, #12]
  else
  {
    huart->Instance->BRR = UART_BRR_SAMPLING16(pclk, huart->Init.BaudRate);
  }
#else
  huart->Instance->BRR = UART_BRR_SAMPLING16(pclk, huart->Init.BaudRate);
 8002fda:	68fa      	ldr	r2, [r7, #12]
 8002fdc:	4613      	mov	r3, r2
 8002fde:	009b      	lsls	r3, r3, #2
 8002fe0:	4413      	add	r3, r2
 8002fe2:	009a      	lsls	r2, r3, #2
 8002fe4:	441a      	add	r2, r3
 8002fe6:	687b      	ldr	r3, [r7, #4]
 8002fe8:	685b      	ldr	r3, [r3, #4]
 8002fea:	009b      	lsls	r3, r3, #2
 8002fec:	fbb2 f3f3 	udiv	r3, r2, r3
 8002ff0:	4a22      	ldr	r2, [pc, #136]	; (800307c <UART_SetConfig+0x118>)
 8002ff2:	fba2 2303 	umull	r2, r3, r2, r3
 8002ff6:	095b      	lsrs	r3, r3, #5
 8002ff8:	0119      	lsls	r1, r3, #4
 8002ffa:	68fa      	ldr	r2, [r7, #12]
 8002ffc:	4613      	mov	r3, r2
 8002ffe:	009b      	lsls	r3, r3, #2
 8003000:	4413      	add	r3, r2
 8003002:	009a      	lsls	r2, r3, #2
 8003004:	441a      	add	r2, r3
 8003006:	687b      	ldr	r3, [r7, #4]
 8003008:	685b      	ldr	r3, [r3, #4]
 800300a:	009b      	lsls	r3, r3, #2
 800300c:	fbb2 f2f3 	udiv	r2, r2, r3
 8003010:	4b1a      	ldr	r3, [pc, #104]	; (800307c <UART_SetConfig+0x118>)
 8003012:	fba3 0302 	umull	r0, r3, r3, r2
 8003016:	095b      	lsrs	r3, r3, #5
 8003018:	2064      	movs	r0, #100	; 0x64
 800301a:	fb00 f303 	mul.w	r3, r0, r3
 800301e:	1ad3      	subs	r3, r2, r3
 8003020:	011b      	lsls	r3, r3, #4
 8003022:	3332      	adds	r3, #50	; 0x32
 8003024:	4a15      	ldr	r2, [pc, #84]	; (800307c <UART_SetConfig+0x118>)
 8003026:	fba2 2303 	umull	r2, r3, r2, r3
 800302a:	095b      	lsrs	r3, r3, #5
 800302c:	f003 03f0 	and.w	r3, r3, #240	; 0xf0
 8003030:	4419      	add	r1, r3
 8003032:	68fa      	ldr	r2, [r7, #12]
 8003034:	4613      	mov	r3, r2
 8003036:	009b      	lsls	r3, r3, #2
 8003038:	4413      	add	r3, r2
 800303a:	009a      	lsls	r2, r3, #2
 800303c:	441a      	add	r2, r3
 800303e:	687b      	ldr	r3, [r7, #4]
 8003040:	685b      	ldr	r3, [r3, #4]
 8003042:	009b      	lsls	r3, r3, #2
 8003044:	fbb2 f2f3 	udiv	r2, r2, r3
 8003048:	4b0c      	ldr	r3, [pc, #48]	; (800307c <UART_SetConfig+0x118>)
 800304a:	fba3 0302 	umull	r0, r3, r3, r2
 800304e:	095b      	lsrs	r3, r3, #5
 8003050:	2064      	movs	r0, #100	; 0x64
 8003052:	fb00 f303 	mul.w	r3, r0, r3
 8003056:	1ad3      	subs	r3, r2, r3
 8003058:	011b      	lsls	r3, r3, #4
 800305a:	3332      	adds	r3, #50	; 0x32
 800305c:	4a07      	ldr	r2, [pc, #28]	; (800307c <UART_SetConfig+0x118>)
 800305e:	fba2 2303 	umull	r2, r3, r2, r3
 8003062:	095b      	lsrs	r3, r3, #5
 8003064:	f003 020f 	and.w	r2, r3, #15
 8003068:	687b      	ldr	r3, [r7, #4]
 800306a:	681b      	ldr	r3, [r3, #0]
 800306c:	440a      	add	r2, r1
 800306e:	609a      	str	r2, [r3, #8]
#endif /* USART_CR1_OVER8 */
}
 8003070:	bf00      	nop
 8003072:	3710      	adds	r7, #16
 8003074:	46bd      	mov	sp, r7
 8003076:	bd80      	pop	{r7, pc}
 8003078:	40013800 	.word	0x40013800
 800307c:	51eb851f 	.word	0x51eb851f

08003080 <__errno>:
 8003080:	4b01      	ldr	r3, [pc, #4]	; (8003088 <__errno+0x8>)
 8003082:	6818      	ldr	r0, [r3, #0]
 8003084:	4770      	bx	lr
 8003086:	bf00      	nop
 8003088:	2000000c 	.word	0x2000000c

0800308c <__libc_init_array>:
 800308c:	b570      	push	{r4, r5, r6, lr}
 800308e:	2600      	movs	r6, #0
 8003090:	4d0c      	ldr	r5, [pc, #48]	; (80030c4 <__libc_init_array+0x38>)
 8003092:	4c0d      	ldr	r4, [pc, #52]	; (80030c8 <__libc_init_array+0x3c>)
 8003094:	1b64      	subs	r4, r4, r5
 8003096:	10a4      	asrs	r4, r4, #2
 8003098:	42a6      	cmp	r6, r4
 800309a:	d109      	bne.n	80030b0 <__libc_init_array+0x24>
 800309c:	f000 fcac 	bl	80039f8 <_init>
 80030a0:	2600      	movs	r6, #0
 80030a2:	4d0a      	ldr	r5, [pc, #40]	; (80030cc <__libc_init_array+0x40>)
 80030a4:	4c0a      	ldr	r4, [pc, #40]	; (80030d0 <__libc_init_array+0x44>)
 80030a6:	1b64      	subs	r4, r4, r5
 80030a8:	10a4      	asrs	r4, r4, #2
 80030aa:	42a6      	cmp	r6, r4
 80030ac:	d105      	bne.n	80030ba <__libc_init_array+0x2e>
 80030ae:	bd70      	pop	{r4, r5, r6, pc}
 80030b0:	f855 3b04 	ldr.w	r3, [r5], #4
 80030b4:	4798      	blx	r3
 80030b6:	3601      	adds	r6, #1
 80030b8:	e7ee      	b.n	8003098 <__libc_init_array+0xc>
 80030ba:	f855 3b04 	ldr.w	r3, [r5], #4
 80030be:	4798      	blx	r3
 80030c0:	3601      	adds	r6, #1
 80030c2:	e7f2      	b.n	80030aa <__libc_init_array+0x1e>
 80030c4:	08003ad0 	.word	0x08003ad0
 80030c8:	08003ad0 	.word	0x08003ad0
 80030cc:	08003ad0 	.word	0x08003ad0
 80030d0:	08003ad4 	.word	0x08003ad4

080030d4 <malloc>:
 80030d4:	4b02      	ldr	r3, [pc, #8]	; (80030e0 <malloc+0xc>)
 80030d6:	4601      	mov	r1, r0
 80030d8:	6818      	ldr	r0, [r3, #0]
 80030da:	f000 b87b 	b.w	80031d4 <_malloc_r>
 80030de:	bf00      	nop
 80030e0:	2000000c 	.word	0x2000000c

080030e4 <free>:
 80030e4:	4b02      	ldr	r3, [pc, #8]	; (80030f0 <free+0xc>)
 80030e6:	4601      	mov	r1, r0
 80030e8:	6818      	ldr	r0, [r3, #0]
 80030ea:	f000 b80b 	b.w	8003104 <_free_r>
 80030ee:	bf00      	nop
 80030f0:	2000000c 	.word	0x2000000c

080030f4 <memset>:
 80030f4:	4603      	mov	r3, r0
 80030f6:	4402      	add	r2, r0
 80030f8:	4293      	cmp	r3, r2
 80030fa:	d100      	bne.n	80030fe <memset+0xa>
 80030fc:	4770      	bx	lr
 80030fe:	f803 1b01 	strb.w	r1, [r3], #1
 8003102:	e7f9      	b.n	80030f8 <memset+0x4>

08003104 <_free_r>:
 8003104:	b538      	push	{r3, r4, r5, lr}
 8003106:	4605      	mov	r5, r0
 8003108:	2900      	cmp	r1, #0
 800310a:	d040      	beq.n	800318e <_free_r+0x8a>
 800310c:	f851 3c04 	ldr.w	r3, [r1, #-4]
 8003110:	1f0c      	subs	r4, r1, #4
 8003112:	2b00      	cmp	r3, #0
 8003114:	bfb8      	it	lt
 8003116:	18e4      	addlt	r4, r4, r3
 8003118:	f000 f900 	bl	800331c <__malloc_lock>
 800311c:	4a1c      	ldr	r2, [pc, #112]	; (8003190 <_free_r+0x8c>)
 800311e:	6813      	ldr	r3, [r2, #0]
 8003120:	b933      	cbnz	r3, 8003130 <_free_r+0x2c>
 8003122:	6063      	str	r3, [r4, #4]
 8003124:	6014      	str	r4, [r2, #0]
 8003126:	4628      	mov	r0, r5
 8003128:	e8bd 4038 	ldmia.w	sp!, {r3, r4, r5, lr}
 800312c:	f000 b8fc 	b.w	8003328 <__malloc_unlock>
 8003130:	42a3      	cmp	r3, r4
 8003132:	d908      	bls.n	8003146 <_free_r+0x42>
 8003134:	6820      	ldr	r0, [r4, #0]
 8003136:	1821      	adds	r1, r4, r0
 8003138:	428b      	cmp	r3, r1
 800313a:	bf01      	itttt	eq
 800313c:	6819      	ldreq	r1, [r3, #0]
 800313e:	685b      	ldreq	r3, [r3, #4]
 8003140:	1809      	addeq	r1, r1, r0
 8003142:	6021      	streq	r1, [r4, #0]
 8003144:	e7ed      	b.n	8003122 <_free_r+0x1e>
 8003146:	461a      	mov	r2, r3
 8003148:	685b      	ldr	r3, [r3, #4]
 800314a:	b10b      	cbz	r3, 8003150 <_free_r+0x4c>
 800314c:	42a3      	cmp	r3, r4
 800314e:	d9fa      	bls.n	8003146 <_free_r+0x42>
 8003150:	6811      	ldr	r1, [r2, #0]
 8003152:	1850      	adds	r0, r2, r1
 8003154:	42a0      	cmp	r0, r4
 8003156:	d10b      	bne.n	8003170 <_free_r+0x6c>
 8003158:	6820      	ldr	r0, [r4, #0]
 800315a:	4401      	add	r1, r0
 800315c:	1850      	adds	r0, r2, r1
 800315e:	4283      	cmp	r3, r0
 8003160:	6011      	str	r1, [r2, #0]
 8003162:	d1e0      	bne.n	8003126 <_free_r+0x22>
 8003164:	6818      	ldr	r0, [r3, #0]
 8003166:	685b      	ldr	r3, [r3, #4]
 8003168:	4401      	add	r1, r0
 800316a:	6011      	str	r1, [r2, #0]
 800316c:	6053      	str	r3, [r2, #4]
 800316e:	e7da      	b.n	8003126 <_free_r+0x22>
 8003170:	d902      	bls.n	8003178 <_free_r+0x74>
 8003172:	230c      	movs	r3, #12
 8003174:	602b      	str	r3, [r5, #0]
 8003176:	e7d6      	b.n	8003126 <_free_r+0x22>
 8003178:	6820      	ldr	r0, [r4, #0]
 800317a:	1821      	adds	r1, r4, r0
 800317c:	428b      	cmp	r3, r1
 800317e:	bf01      	itttt	eq
 8003180:	6819      	ldreq	r1, [r3, #0]
 8003182:	685b      	ldreq	r3, [r3, #4]
 8003184:	1809      	addeq	r1, r1, r0
 8003186:	6021      	streq	r1, [r4, #0]
 8003188:	6063      	str	r3, [r4, #4]
 800318a:	6054      	str	r4, [r2, #4]
 800318c:	e7cb      	b.n	8003126 <_free_r+0x22>
 800318e:	bd38      	pop	{r3, r4, r5, pc}
 8003190:	20000184 	.word	0x20000184

08003194 <sbrk_aligned>:
 8003194:	b570      	push	{r4, r5, r6, lr}
 8003196:	4e0e      	ldr	r6, [pc, #56]	; (80031d0 <sbrk_aligned+0x3c>)
 8003198:	460c      	mov	r4, r1
 800319a:	6831      	ldr	r1, [r6, #0]
 800319c:	4605      	mov	r5, r0
 800319e:	b911      	cbnz	r1, 80031a6 <sbrk_aligned+0x12>
 80031a0:	f000 f88c 	bl	80032bc <_sbrk_r>
 80031a4:	6030      	str	r0, [r6, #0]
 80031a6:	4621      	mov	r1, r4
 80031a8:	4628      	mov	r0, r5
 80031aa:	f000 f887 	bl	80032bc <_sbrk_r>
 80031ae:	1c43      	adds	r3, r0, #1
 80031b0:	d00a      	beq.n	80031c8 <sbrk_aligned+0x34>
 80031b2:	1cc4      	adds	r4, r0, #3
 80031b4:	f024 0403 	bic.w	r4, r4, #3
 80031b8:	42a0      	cmp	r0, r4
 80031ba:	d007      	beq.n	80031cc <sbrk_aligned+0x38>
 80031bc:	1a21      	subs	r1, r4, r0
 80031be:	4628      	mov	r0, r5
 80031c0:	f000 f87c 	bl	80032bc <_sbrk_r>
 80031c4:	3001      	adds	r0, #1
 80031c6:	d101      	bne.n	80031cc <sbrk_aligned+0x38>
 80031c8:	f04f 34ff 	mov.w	r4, #4294967295
 80031cc:	4620      	mov	r0, r4
 80031ce:	bd70      	pop	{r4, r5, r6, pc}
 80031d0:	20000188 	.word	0x20000188

080031d4 <_malloc_r>:
 80031d4:	e92d 41f0 	stmdb	sp!, {r4, r5, r6, r7, r8, lr}
 80031d8:	1ccd      	adds	r5, r1, #3
 80031da:	f025 0503 	bic.w	r5, r5, #3
 80031de:	3508      	adds	r5, #8
 80031e0:	2d0c      	cmp	r5, #12
 80031e2:	bf38      	it	cc
 80031e4:	250c      	movcc	r5, #12
 80031e6:	2d00      	cmp	r5, #0
 80031e8:	4607      	mov	r7, r0
 80031ea:	db01      	blt.n	80031f0 <_malloc_r+0x1c>
 80031ec:	42a9      	cmp	r1, r5
 80031ee:	d905      	bls.n	80031fc <_malloc_r+0x28>
 80031f0:	230c      	movs	r3, #12
 80031f2:	2600      	movs	r6, #0
 80031f4:	603b      	str	r3, [r7, #0]
 80031f6:	4630      	mov	r0, r6
 80031f8:	e8bd 81f0 	ldmia.w	sp!, {r4, r5, r6, r7, r8, pc}
 80031fc:	4e2e      	ldr	r6, [pc, #184]	; (80032b8 <_malloc_r+0xe4>)
 80031fe:	f000 f88d 	bl	800331c <__malloc_lock>
 8003202:	6833      	ldr	r3, [r6, #0]
 8003204:	461c      	mov	r4, r3
 8003206:	bb34      	cbnz	r4, 8003256 <_malloc_r+0x82>
 8003208:	4629      	mov	r1, r5
 800320a:	4638      	mov	r0, r7
 800320c:	f7ff ffc2 	bl	8003194 <sbrk_aligned>
 8003210:	1c43      	adds	r3, r0, #1
 8003212:	4604      	mov	r4, r0
 8003214:	d14d      	bne.n	80032b2 <_malloc_r+0xde>
 8003216:	6834      	ldr	r4, [r6, #0]
 8003218:	4626      	mov	r6, r4
 800321a:	2e00      	cmp	r6, #0
 800321c:	d140      	bne.n	80032a0 <_malloc_r+0xcc>
 800321e:	6823      	ldr	r3, [r4, #0]
 8003220:	4631      	mov	r1, r6
 8003222:	4638      	mov	r0, r7
 8003224:	eb04 0803 	add.w	r8, r4, r3
 8003228:	f000 f848 	bl	80032bc <_sbrk_r>
 800322c:	4580      	cmp	r8, r0
 800322e:	d13a      	bne.n	80032a6 <_malloc_r+0xd2>
 8003230:	6821      	ldr	r1, [r4, #0]
 8003232:	3503      	adds	r5, #3
 8003234:	1a6d      	subs	r5, r5, r1
 8003236:	f025 0503 	bic.w	r5, r5, #3
 800323a:	3508      	adds	r5, #8
 800323c:	2d0c      	cmp	r5, #12
 800323e:	bf38      	it	cc
 8003240:	250c      	movcc	r5, #12
 8003242:	4638      	mov	r0, r7
 8003244:	4629      	mov	r1, r5
 8003246:	f7ff ffa5 	bl	8003194 <sbrk_aligned>
 800324a:	3001      	adds	r0, #1
 800324c:	d02b      	beq.n	80032a6 <_malloc_r+0xd2>
 800324e:	6823      	ldr	r3, [r4, #0]
 8003250:	442b      	add	r3, r5
 8003252:	6023      	str	r3, [r4, #0]
 8003254:	e00e      	b.n	8003274 <_malloc_r+0xa0>
 8003256:	6822      	ldr	r2, [r4, #0]
 8003258:	1b52      	subs	r2, r2, r5
 800325a:	d41e      	bmi.n	800329a <_malloc_r+0xc6>
 800325c:	2a0b      	cmp	r2, #11
 800325e:	d916      	bls.n	800328e <_malloc_r+0xba>
 8003260:	1961      	adds	r1, r4, r5
 8003262:	42a3      	cmp	r3, r4
 8003264:	6025      	str	r5, [r4, #0]
 8003266:	bf18      	it	ne
 8003268:	6059      	strne	r1, [r3, #4]
 800326a:	6863      	ldr	r3, [r4, #4]
 800326c:	bf08      	it	eq
 800326e:	6031      	streq	r1, [r6, #0]
 8003270:	5162      	str	r2, [r4, r5]
 8003272:	604b      	str	r3, [r1, #4]
 8003274:	4638      	mov	r0, r7
 8003276:	f104 060b 	add.w	r6, r4, #11
 800327a:	f000 f855 	bl	8003328 <__malloc_unlock>
 800327e:	f026 0607 	bic.w	r6, r6, #7
 8003282:	1d23      	adds	r3, r4, #4
 8003284:	1af2      	subs	r2, r6, r3
 8003286:	d0b6      	beq.n	80031f6 <_malloc_r+0x22>
 8003288:	1b9b      	subs	r3, r3, r6
 800328a:	50a3      	str	r3, [r4, r2]
 800328c:	e7b3      	b.n	80031f6 <_malloc_r+0x22>
 800328e:	6862      	ldr	r2, [r4, #4]
 8003290:	42a3      	cmp	r3, r4
 8003292:	bf0c      	ite	eq
 8003294:	6032      	streq	r2, [r6, #0]
 8003296:	605a      	strne	r2, [r3, #4]
 8003298:	e7ec      	b.n	8003274 <_malloc_r+0xa0>
 800329a:	4623      	mov	r3, r4
 800329c:	6864      	ldr	r4, [r4, #4]
 800329e:	e7b2      	b.n	8003206 <_malloc_r+0x32>
 80032a0:	4634      	mov	r4, r6
 80032a2:	6876      	ldr	r6, [r6, #4]
 80032a4:	e7b9      	b.n	800321a <_malloc_r+0x46>
 80032a6:	230c      	movs	r3, #12
 80032a8:	4638      	mov	r0, r7
 80032aa:	603b      	str	r3, [r7, #0]
 80032ac:	f000 f83c 	bl	8003328 <__malloc_unlock>
 80032b0:	e7a1      	b.n	80031f6 <_malloc_r+0x22>
 80032b2:	6025      	str	r5, [r4, #0]
 80032b4:	e7de      	b.n	8003274 <_malloc_r+0xa0>
 80032b6:	bf00      	nop
 80032b8:	20000184 	.word	0x20000184

080032bc <_sbrk_r>:
 80032bc:	b538      	push	{r3, r4, r5, lr}
 80032be:	2300      	movs	r3, #0
 80032c0:	4d05      	ldr	r5, [pc, #20]	; (80032d8 <_sbrk_r+0x1c>)
 80032c2:	4604      	mov	r4, r0
 80032c4:	4608      	mov	r0, r1
 80032c6:	602b      	str	r3, [r5, #0]
 80032c8:	f7fd fc04 	bl	8000ad4 <_sbrk>
 80032cc:	1c43      	adds	r3, r0, #1
 80032ce:	d102      	bne.n	80032d6 <_sbrk_r+0x1a>
 80032d0:	682b      	ldr	r3, [r5, #0]
 80032d2:	b103      	cbz	r3, 80032d6 <_sbrk_r+0x1a>
 80032d4:	6023      	str	r3, [r4, #0]
 80032d6:	bd38      	pop	{r3, r4, r5, pc}
 80032d8:	2000018c 	.word	0x2000018c

080032dc <siprintf>:
 80032dc:	b40e      	push	{r1, r2, r3}
 80032de:	f06f 4100 	mvn.w	r1, #2147483648	; 0x80000000
 80032e2:	b500      	push	{lr}
 80032e4:	b09c      	sub	sp, #112	; 0x70
 80032e6:	ab1d      	add	r3, sp, #116	; 0x74
 80032e8:	9002      	str	r0, [sp, #8]
 80032ea:	9006      	str	r0, [sp, #24]
 80032ec:	9107      	str	r1, [sp, #28]
 80032ee:	9104      	str	r1, [sp, #16]
 80032f0:	4808      	ldr	r0, [pc, #32]	; (8003314 <siprintf+0x38>)
 80032f2:	4909      	ldr	r1, [pc, #36]	; (8003318 <siprintf+0x3c>)
 80032f4:	f853 2b04 	ldr.w	r2, [r3], #4
 80032f8:	9105      	str	r1, [sp, #20]
 80032fa:	6800      	ldr	r0, [r0, #0]
 80032fc:	a902      	add	r1, sp, #8
 80032fe:	9301      	str	r3, [sp, #4]
 8003300:	f000 f874 	bl	80033ec <_svfiprintf_r>
 8003304:	2200      	movs	r2, #0
 8003306:	9b02      	ldr	r3, [sp, #8]
 8003308:	701a      	strb	r2, [r3, #0]
 800330a:	b01c      	add	sp, #112	; 0x70
 800330c:	f85d eb04 	ldr.w	lr, [sp], #4
 8003310:	b003      	add	sp, #12
 8003312:	4770      	bx	lr
 8003314:	2000000c 	.word	0x2000000c
 8003318:	ffff0208 	.word	0xffff0208

0800331c <__malloc_lock>:
 800331c:	4801      	ldr	r0, [pc, #4]	; (8003324 <__malloc_lock+0x8>)
 800331e:	f000 bafb 	b.w	8003918 <__retarget_lock_acquire_recursive>
 8003322:	bf00      	nop
 8003324:	20000190 	.word	0x20000190

08003328 <__malloc_unlock>:
 8003328:	4801      	ldr	r0, [pc, #4]	; (8003330 <__malloc_unlock+0x8>)
 800332a:	f000 baf6 	b.w	800391a <__retarget_lock_release_recursive>
 800332e:	bf00      	nop
 8003330:	20000190 	.word	0x20000190

08003334 <__ssputs_r>:
 8003334:	e92d 47f0 	stmdb	sp!, {r4, r5, r6, r7, r8, r9, sl, lr}
 8003338:	688e      	ldr	r6, [r1, #8]
 800333a:	4682      	mov	sl, r0
 800333c:	429e      	cmp	r6, r3
 800333e:	460c      	mov	r4, r1
 8003340:	4690      	mov	r8, r2
 8003342:	461f      	mov	r7, r3
 8003344:	d838      	bhi.n	80033b8 <__ssputs_r+0x84>
 8003346:	898a      	ldrh	r2, [r1, #12]
 8003348:	f412 6f90 	tst.w	r2, #1152	; 0x480
 800334c:	d032      	beq.n	80033b4 <__ssputs_r+0x80>
 800334e:	6825      	ldr	r5, [r4, #0]
 8003350:	6909      	ldr	r1, [r1, #16]
 8003352:	3301      	adds	r3, #1
 8003354:	eba5 0901 	sub.w	r9, r5, r1
 8003358:	6965      	ldr	r5, [r4, #20]
 800335a:	444b      	add	r3, r9
 800335c:	eb05 0545 	add.w	r5, r5, r5, lsl #1
 8003360:	eb05 75d5 	add.w	r5, r5, r5, lsr #31
 8003364:	106d      	asrs	r5, r5, #1
 8003366:	429d      	cmp	r5, r3
 8003368:	bf38      	it	cc
 800336a:	461d      	movcc	r5, r3
 800336c:	0553      	lsls	r3, r2, #21
 800336e:	d531      	bpl.n	80033d4 <__ssputs_r+0xa0>
 8003370:	4629      	mov	r1, r5
 8003372:	f7ff ff2f 	bl	80031d4 <_malloc_r>
 8003376:	4606      	mov	r6, r0
 8003378:	b950      	cbnz	r0, 8003390 <__ssputs_r+0x5c>
 800337a:	230c      	movs	r3, #12
 800337c:	f04f 30ff 	mov.w	r0, #4294967295
 8003380:	f8ca 3000 	str.w	r3, [sl]
 8003384:	89a3      	ldrh	r3, [r4, #12]
 8003386:	f043 0340 	orr.w	r3, r3, #64	; 0x40
 800338a:	81a3      	strh	r3, [r4, #12]
 800338c:	e8bd 87f0 	ldmia.w	sp!, {r4, r5, r6, r7, r8, r9, sl, pc}
 8003390:	464a      	mov	r2, r9
 8003392:	6921      	ldr	r1, [r4, #16]
 8003394:	f000 fad0 	bl	8003938 <memcpy>
 8003398:	89a3      	ldrh	r3, [r4, #12]
 800339a:	f423 6390 	bic.w	r3, r3, #1152	; 0x480
 800339e:	f043 0380 	orr.w	r3, r3, #128	; 0x80
 80033a2:	81a3      	strh	r3, [r4, #12]
 80033a4:	6126      	str	r6, [r4, #16]
 80033a6:	444e      	add	r6, r9
 80033a8:	6026      	str	r6, [r4, #0]
 80033aa:	463e      	mov	r6, r7
 80033ac:	6165      	str	r5, [r4, #20]
 80033ae:	eba5 0509 	sub.w	r5, r5, r9
 80033b2:	60a5      	str	r5, [r4, #8]
 80033b4:	42be      	cmp	r6, r7
 80033b6:	d900      	bls.n	80033ba <__ssputs_r+0x86>
 80033b8:	463e      	mov	r6, r7
 80033ba:	4632      	mov	r2, r6
 80033bc:	4641      	mov	r1, r8
 80033be:	6820      	ldr	r0, [r4, #0]
 80033c0:	f000 fac8 	bl	8003954 <memmove>
 80033c4:	68a3      	ldr	r3, [r4, #8]
 80033c6:	2000      	movs	r0, #0
 80033c8:	1b9b      	subs	r3, r3, r6
 80033ca:	60a3      	str	r3, [r4, #8]
 80033cc:	6823      	ldr	r3, [r4, #0]
 80033ce:	4433      	add	r3, r6
 80033d0:	6023      	str	r3, [r4, #0]
 80033d2:	e7db      	b.n	800338c <__ssputs_r+0x58>
 80033d4:	462a      	mov	r2, r5
 80033d6:	f000 fad7 	bl	8003988 <_realloc_r>
 80033da:	4606      	mov	r6, r0
 80033dc:	2800      	cmp	r0, #0
 80033de:	d1e1      	bne.n	80033a4 <__ssputs_r+0x70>
 80033e0:	4650      	mov	r0, sl
 80033e2:	6921      	ldr	r1, [r4, #16]
 80033e4:	f7ff fe8e 	bl	8003104 <_free_r>
 80033e8:	e7c7      	b.n	800337a <__ssputs_r+0x46>
	...

080033ec <_svfiprintf_r>:
 80033ec:	e92d 4ff0 	stmdb	sp!, {r4, r5, r6, r7, r8, r9, sl, fp, lr}
 80033f0:	4698      	mov	r8, r3
 80033f2:	898b      	ldrh	r3, [r1, #12]
 80033f4:	4607      	mov	r7, r0
 80033f6:	061b      	lsls	r3, r3, #24
 80033f8:	460d      	mov	r5, r1
 80033fa:	4614      	mov	r4, r2
 80033fc:	b09d      	sub	sp, #116	; 0x74
 80033fe:	d50e      	bpl.n	800341e <_svfiprintf_r+0x32>
 8003400:	690b      	ldr	r3, [r1, #16]
 8003402:	b963      	cbnz	r3, 800341e <_svfiprintf_r+0x32>
 8003404:	2140      	movs	r1, #64	; 0x40
 8003406:	f7ff fee5 	bl	80031d4 <_malloc_r>
 800340a:	6028      	str	r0, [r5, #0]
 800340c:	6128      	str	r0, [r5, #16]
 800340e:	b920      	cbnz	r0, 800341a <_svfiprintf_r+0x2e>
 8003410:	230c      	movs	r3, #12
 8003412:	603b      	str	r3, [r7, #0]
 8003414:	f04f 30ff 	mov.w	r0, #4294967295
 8003418:	e0d1      	b.n	80035be <_svfiprintf_r+0x1d2>
 800341a:	2340      	movs	r3, #64	; 0x40
 800341c:	616b      	str	r3, [r5, #20]
 800341e:	2300      	movs	r3, #0
 8003420:	9309      	str	r3, [sp, #36]	; 0x24
 8003422:	2320      	movs	r3, #32
 8003424:	f88d 3029 	strb.w	r3, [sp, #41]	; 0x29
 8003428:	2330      	movs	r3, #48	; 0x30
 800342a:	f04f 0901 	mov.w	r9, #1
 800342e:	f8cd 800c 	str.w	r8, [sp, #12]
 8003432:	f8df 81a4 	ldr.w	r8, [pc, #420]	; 80035d8 <_svfiprintf_r+0x1ec>
 8003436:	f88d 302a 	strb.w	r3, [sp, #42]	; 0x2a
 800343a:	4623      	mov	r3, r4
 800343c:	469a      	mov	sl, r3
 800343e:	f813 2b01 	ldrb.w	r2, [r3], #1
 8003442:	b10a      	cbz	r2, 8003448 <_svfiprintf_r+0x5c>
 8003444:	2a25      	cmp	r2, #37	; 0x25
 8003446:	d1f9      	bne.n	800343c <_svfiprintf_r+0x50>
 8003448:	ebba 0b04 	subs.w	fp, sl, r4
 800344c:	d00b      	beq.n	8003466 <_svfiprintf_r+0x7a>
 800344e:	465b      	mov	r3, fp
 8003450:	4622      	mov	r2, r4
 8003452:	4629      	mov	r1, r5
 8003454:	4638      	mov	r0, r7
 8003456:	f7ff ff6d 	bl	8003334 <__ssputs_r>
 800345a:	3001      	adds	r0, #1
 800345c:	f000 80aa 	beq.w	80035b4 <_svfiprintf_r+0x1c8>
 8003460:	9a09      	ldr	r2, [sp, #36]	; 0x24
 8003462:	445a      	add	r2, fp
 8003464:	9209      	str	r2, [sp, #36]	; 0x24
 8003466:	f89a 3000 	ldrb.w	r3, [sl]
 800346a:	2b00      	cmp	r3, #0
 800346c:	f000 80a2 	beq.w	80035b4 <_svfiprintf_r+0x1c8>
 8003470:	2300      	movs	r3, #0
 8003472:	f04f 32ff 	mov.w	r2, #4294967295
 8003476:	e9cd 2305 	strd	r2, r3, [sp, #20]
 800347a:	f10a 0a01 	add.w	sl, sl, #1
 800347e:	9304      	str	r3, [sp, #16]
 8003480:	9307      	str	r3, [sp, #28]
 8003482:	f88d 3053 	strb.w	r3, [sp, #83]	; 0x53
 8003486:	931a      	str	r3, [sp, #104]	; 0x68
 8003488:	4654      	mov	r4, sl
 800348a:	2205      	movs	r2, #5
 800348c:	f814 1b01 	ldrb.w	r1, [r4], #1
 8003490:	4851      	ldr	r0, [pc, #324]	; (80035d8 <_svfiprintf_r+0x1ec>)
 8003492:	f000 fa43 	bl	800391c <memchr>
 8003496:	9a04      	ldr	r2, [sp, #16]
 8003498:	b9d8      	cbnz	r0, 80034d2 <_svfiprintf_r+0xe6>
 800349a:	06d0      	lsls	r0, r2, #27
 800349c:	bf44      	itt	mi
 800349e:	2320      	movmi	r3, #32
 80034a0:	f88d 3053 	strbmi.w	r3, [sp, #83]	; 0x53
 80034a4:	0711      	lsls	r1, r2, #28
 80034a6:	bf44      	itt	mi
 80034a8:	232b      	movmi	r3, #43	; 0x2b
 80034aa:	f88d 3053 	strbmi.w	r3, [sp, #83]	; 0x53
 80034ae:	f89a 3000 	ldrb.w	r3, [sl]
 80034b2:	2b2a      	cmp	r3, #42	; 0x2a
 80034b4:	d015      	beq.n	80034e2 <_svfiprintf_r+0xf6>
 80034b6:	4654      	mov	r4, sl
 80034b8:	2000      	movs	r0, #0
 80034ba:	f04f 0c0a 	mov.w	ip, #10
 80034be:	9a07      	ldr	r2, [sp, #28]
 80034c0:	4621      	mov	r1, r4
 80034c2:	f811 3b01 	ldrb.w	r3, [r1], #1
 80034c6:	3b30      	subs	r3, #48	; 0x30
 80034c8:	2b09      	cmp	r3, #9
 80034ca:	d94e      	bls.n	800356a <_svfiprintf_r+0x17e>
 80034cc:	b1b0      	cbz	r0, 80034fc <_svfiprintf_r+0x110>
 80034ce:	9207      	str	r2, [sp, #28]
 80034d0:	e014      	b.n	80034fc <_svfiprintf_r+0x110>
 80034d2:	eba0 0308 	sub.w	r3, r0, r8
 80034d6:	fa09 f303 	lsl.w	r3, r9, r3
 80034da:	4313      	orrs	r3, r2
 80034dc:	46a2      	mov	sl, r4
 80034de:	9304      	str	r3, [sp, #16]
 80034e0:	e7d2      	b.n	8003488 <_svfiprintf_r+0x9c>
 80034e2:	9b03      	ldr	r3, [sp, #12]
 80034e4:	1d19      	adds	r1, r3, #4
 80034e6:	681b      	ldr	r3, [r3, #0]
 80034e8:	9103      	str	r1, [sp, #12]
 80034ea:	2b00      	cmp	r3, #0
 80034ec:	bfbb      	ittet	lt
 80034ee:	425b      	neglt	r3, r3
 80034f0:	f042 0202 	orrlt.w	r2, r2, #2
 80034f4:	9307      	strge	r3, [sp, #28]
 80034f6:	9307      	strlt	r3, [sp, #28]
 80034f8:	bfb8      	it	lt
 80034fa:	9204      	strlt	r2, [sp, #16]
 80034fc:	7823      	ldrb	r3, [r4, #0]
 80034fe:	2b2e      	cmp	r3, #46	; 0x2e
 8003500:	d10c      	bne.n	800351c <_svfiprintf_r+0x130>
 8003502:	7863      	ldrb	r3, [r4, #1]
 8003504:	2b2a      	cmp	r3, #42	; 0x2a
 8003506:	d135      	bne.n	8003574 <_svfiprintf_r+0x188>
 8003508:	9b03      	ldr	r3, [sp, #12]
 800350a:	3402      	adds	r4, #2
 800350c:	1d1a      	adds	r2, r3, #4
 800350e:	681b      	ldr	r3, [r3, #0]
 8003510:	9203      	str	r2, [sp, #12]
 8003512:	2b00      	cmp	r3, #0
 8003514:	bfb8      	it	lt
 8003516:	f04f 33ff 	movlt.w	r3, #4294967295
 800351a:	9305      	str	r3, [sp, #20]
 800351c:	f8df a0bc 	ldr.w	sl, [pc, #188]	; 80035dc <_svfiprintf_r+0x1f0>
 8003520:	2203      	movs	r2, #3
 8003522:	4650      	mov	r0, sl
 8003524:	7821      	ldrb	r1, [r4, #0]
 8003526:	f000 f9f9 	bl	800391c <memchr>
 800352a:	b140      	cbz	r0, 800353e <_svfiprintf_r+0x152>
 800352c:	2340      	movs	r3, #64	; 0x40
 800352e:	eba0 000a 	sub.w	r0, r0, sl
 8003532:	fa03 f000 	lsl.w	r0, r3, r0
 8003536:	9b04      	ldr	r3, [sp, #16]
 8003538:	3401      	adds	r4, #1
 800353a:	4303      	orrs	r3, r0
 800353c:	9304      	str	r3, [sp, #16]
 800353e:	f814 1b01 	ldrb.w	r1, [r4], #1
 8003542:	2206      	movs	r2, #6
 8003544:	4826      	ldr	r0, [pc, #152]	; (80035e0 <_svfiprintf_r+0x1f4>)
 8003546:	f88d 1028 	strb.w	r1, [sp, #40]	; 0x28
 800354a:	f000 f9e7 	bl	800391c <memchr>
 800354e:	2800      	cmp	r0, #0
 8003550:	d038      	beq.n	80035c4 <_svfiprintf_r+0x1d8>
 8003552:	4b24      	ldr	r3, [pc, #144]	; (80035e4 <_svfiprintf_r+0x1f8>)
 8003554:	bb1b      	cbnz	r3, 800359e <_svfiprintf_r+0x1b2>
 8003556:	9b03      	ldr	r3, [sp, #12]
 8003558:	3307      	adds	r3, #7
 800355a:	f023 0307 	bic.w	r3, r3, #7
 800355e:	3308      	adds	r3, #8
 8003560:	9303      	str	r3, [sp, #12]
 8003562:	9b09      	ldr	r3, [sp, #36]	; 0x24
 8003564:	4433      	add	r3, r6
 8003566:	9309      	str	r3, [sp, #36]	; 0x24
 8003568:	e767      	b.n	800343a <_svfiprintf_r+0x4e>
 800356a:	460c      	mov	r4, r1
 800356c:	2001      	movs	r0, #1
 800356e:	fb0c 3202 	mla	r2, ip, r2, r3
 8003572:	e7a5      	b.n	80034c0 <_svfiprintf_r+0xd4>
 8003574:	2300      	movs	r3, #0
 8003576:	f04f 0c0a 	mov.w	ip, #10
 800357a:	4619      	mov	r1, r3
 800357c:	3401      	adds	r4, #1
 800357e:	9305      	str	r3, [sp, #20]
 8003580:	4620      	mov	r0, r4
 8003582:	f810 2b01 	ldrb.w	r2, [r0], #1
 8003586:	3a30      	subs	r2, #48	; 0x30
 8003588:	2a09      	cmp	r2, #9
 800358a:	d903      	bls.n	8003594 <_svfiprintf_r+0x1a8>
 800358c:	2b00      	cmp	r3, #0
 800358e:	d0c5      	beq.n	800351c <_svfiprintf_r+0x130>
 8003590:	9105      	str	r1, [sp, #20]
 8003592:	e7c3      	b.n	800351c <_svfiprintf_r+0x130>
 8003594:	4604      	mov	r4, r0
 8003596:	2301      	movs	r3, #1
 8003598:	fb0c 2101 	mla	r1, ip, r1, r2
 800359c:	e7f0      	b.n	8003580 <_svfiprintf_r+0x194>
 800359e:	ab03      	add	r3, sp, #12
 80035a0:	9300      	str	r3, [sp, #0]
 80035a2:	462a      	mov	r2, r5
 80035a4:	4638      	mov	r0, r7
 80035a6:	4b10      	ldr	r3, [pc, #64]	; (80035e8 <_svfiprintf_r+0x1fc>)
 80035a8:	a904      	add	r1, sp, #16
 80035aa:	f3af 8000 	nop.w
 80035ae:	1c42      	adds	r2, r0, #1
 80035b0:	4606      	mov	r6, r0
 80035b2:	d1d6      	bne.n	8003562 <_svfiprintf_r+0x176>
 80035b4:	89ab      	ldrh	r3, [r5, #12]
 80035b6:	065b      	lsls	r3, r3, #25
 80035b8:	f53f af2c 	bmi.w	8003414 <_svfiprintf_r+0x28>
 80035bc:	9809      	ldr	r0, [sp, #36]	; 0x24
 80035be:	b01d      	add	sp, #116	; 0x74
 80035c0:	e8bd 8ff0 	ldmia.w	sp!, {r4, r5, r6, r7, r8, r9, sl, fp, pc}
 80035c4:	ab03      	add	r3, sp, #12
 80035c6:	9300      	str	r3, [sp, #0]
 80035c8:	462a      	mov	r2, r5
 80035ca:	4638      	mov	r0, r7
 80035cc:	4b06      	ldr	r3, [pc, #24]	; (80035e8 <_svfiprintf_r+0x1fc>)
 80035ce:	a904      	add	r1, sp, #16
 80035d0:	f000 f87c 	bl	80036cc <_printf_i>
 80035d4:	e7eb      	b.n	80035ae <_svfiprintf_r+0x1c2>
 80035d6:	bf00      	nop
 80035d8:	08003a9a 	.word	0x08003a9a
 80035dc:	08003aa0 	.word	0x08003aa0
 80035e0:	08003aa4 	.word	0x08003aa4
 80035e4:	00000000 	.word	0x00000000
 80035e8:	08003335 	.word	0x08003335

080035ec <_printf_common>:
 80035ec:	e92d 47f0 	stmdb	sp!, {r4, r5, r6, r7, r8, r9, sl, lr}
 80035f0:	4616      	mov	r6, r2
 80035f2:	4699      	mov	r9, r3
 80035f4:	688a      	ldr	r2, [r1, #8]
 80035f6:	690b      	ldr	r3, [r1, #16]
 80035f8:	4607      	mov	r7, r0
 80035fa:	4293      	cmp	r3, r2
 80035fc:	bfb8      	it	lt
 80035fe:	4613      	movlt	r3, r2
 8003600:	6033      	str	r3, [r6, #0]
 8003602:	f891 2043 	ldrb.w	r2, [r1, #67]	; 0x43
 8003606:	460c      	mov	r4, r1
 8003608:	f8dd 8020 	ldr.w	r8, [sp, #32]
 800360c:	b10a      	cbz	r2, 8003612 <_printf_common+0x26>
 800360e:	3301      	adds	r3, #1
 8003610:	6033      	str	r3, [r6, #0]
 8003612:	6823      	ldr	r3, [r4, #0]
 8003614:	0699      	lsls	r1, r3, #26
 8003616:	bf42      	ittt	mi
 8003618:	6833      	ldrmi	r3, [r6, #0]
 800361a:	3302      	addmi	r3, #2
 800361c:	6033      	strmi	r3, [r6, #0]
 800361e:	6825      	ldr	r5, [r4, #0]
 8003620:	f015 0506 	ands.w	r5, r5, #6
 8003624:	d106      	bne.n	8003634 <_printf_common+0x48>
 8003626:	f104 0a19 	add.w	sl, r4, #25
 800362a:	68e3      	ldr	r3, [r4, #12]
 800362c:	6832      	ldr	r2, [r6, #0]
 800362e:	1a9b      	subs	r3, r3, r2
 8003630:	42ab      	cmp	r3, r5
 8003632:	dc28      	bgt.n	8003686 <_printf_common+0x9a>
 8003634:	f894 2043 	ldrb.w	r2, [r4, #67]	; 0x43
 8003638:	1e13      	subs	r3, r2, #0
 800363a:	6822      	ldr	r2, [r4, #0]
 800363c:	bf18      	it	ne
 800363e:	2301      	movne	r3, #1
 8003640:	0692      	lsls	r2, r2, #26
 8003642:	d42d      	bmi.n	80036a0 <_printf_common+0xb4>
 8003644:	4649      	mov	r1, r9
 8003646:	4638      	mov	r0, r7
 8003648:	f104 0243 	add.w	r2, r4, #67	; 0x43
 800364c:	47c0      	blx	r8
 800364e:	3001      	adds	r0, #1
 8003650:	d020      	beq.n	8003694 <_printf_common+0xa8>
 8003652:	6823      	ldr	r3, [r4, #0]
 8003654:	68e5      	ldr	r5, [r4, #12]
 8003656:	f003 0306 	and.w	r3, r3, #6
 800365a:	2b04      	cmp	r3, #4
 800365c:	bf18      	it	ne
 800365e:	2500      	movne	r5, #0
 8003660:	6832      	ldr	r2, [r6, #0]
 8003662:	f04f 0600 	mov.w	r6, #0
 8003666:	68a3      	ldr	r3, [r4, #8]
 8003668:	bf08      	it	eq
 800366a:	1aad      	subeq	r5, r5, r2
 800366c:	6922      	ldr	r2, [r4, #16]
 800366e:	bf08      	it	eq
 8003670:	ea25 75e5 	biceq.w	r5, r5, r5, asr #31
 8003674:	4293      	cmp	r3, r2
 8003676:	bfc4      	itt	gt
 8003678:	1a9b      	subgt	r3, r3, r2
 800367a:	18ed      	addgt	r5, r5, r3
 800367c:	341a      	adds	r4, #26
 800367e:	42b5      	cmp	r5, r6
 8003680:	d11a      	bne.n	80036b8 <_printf_common+0xcc>
 8003682:	2000      	movs	r0, #0
 8003684:	e008      	b.n	8003698 <_printf_common+0xac>
 8003686:	2301      	movs	r3, #1
 8003688:	4652      	mov	r2, sl
 800368a:	4649      	mov	r1, r9
 800368c:	4638      	mov	r0, r7
 800368e:	47c0      	blx	r8
 8003690:	3001      	adds	r0, #1
 8003692:	d103      	bne.n	800369c <_printf_common+0xb0>
 8003694:	f04f 30ff 	mov.w	r0, #4294967295
 8003698:	e8bd 87f0 	ldmia.w	sp!, {r4, r5, r6, r7, r8, r9, sl, pc}
 800369c:	3501      	adds	r5, #1
 800369e:	e7c4      	b.n	800362a <_printf_common+0x3e>
 80036a0:	2030      	movs	r0, #48	; 0x30
 80036a2:	18e1      	adds	r1, r4, r3
 80036a4:	f881 0043 	strb.w	r0, [r1, #67]	; 0x43
 80036a8:	1c5a      	adds	r2, r3, #1
 80036aa:	f894 1045 	ldrb.w	r1, [r4, #69]	; 0x45
 80036ae:	4422      	add	r2, r4
 80036b0:	3302      	adds	r3, #2
 80036b2:	f882 1043 	strb.w	r1, [r2, #67]	; 0x43
 80036b6:	e7c5      	b.n	8003644 <_printf_common+0x58>
 80036b8:	2301      	movs	r3, #1
 80036ba:	4622      	mov	r2, r4
 80036bc:	4649      	mov	r1, r9
 80036be:	4638      	mov	r0, r7
 80036c0:	47c0      	blx	r8
 80036c2:	3001      	adds	r0, #1
 80036c4:	d0e6      	beq.n	8003694 <_printf_common+0xa8>
 80036c6:	3601      	adds	r6, #1
 80036c8:	e7d9      	b.n	800367e <_printf_common+0x92>
	...

080036cc <_printf_i>:
 80036cc:	e92d 47ff 	stmdb	sp!, {r0, r1, r2, r3, r4, r5, r6, r7, r8, r9, sl, lr}
 80036d0:	7e0f      	ldrb	r7, [r1, #24]
 80036d2:	4691      	mov	r9, r2
 80036d4:	2f78      	cmp	r7, #120	; 0x78
 80036d6:	4680      	mov	r8, r0
 80036d8:	460c      	mov	r4, r1
 80036da:	469a      	mov	sl, r3
 80036dc:	9d0c      	ldr	r5, [sp, #48]	; 0x30
 80036de:	f101 0243 	add.w	r2, r1, #67	; 0x43
 80036e2:	d807      	bhi.n	80036f4 <_printf_i+0x28>
 80036e4:	2f62      	cmp	r7, #98	; 0x62
 80036e6:	d80a      	bhi.n	80036fe <_printf_i+0x32>
 80036e8:	2f00      	cmp	r7, #0
 80036ea:	f000 80d9 	beq.w	80038a0 <_printf_i+0x1d4>
 80036ee:	2f58      	cmp	r7, #88	; 0x58
 80036f0:	f000 80a4 	beq.w	800383c <_printf_i+0x170>
 80036f4:	f104 0542 	add.w	r5, r4, #66	; 0x42
 80036f8:	f884 7042 	strb.w	r7, [r4, #66]	; 0x42
 80036fc:	e03a      	b.n	8003774 <_printf_i+0xa8>
 80036fe:	f1a7 0363 	sub.w	r3, r7, #99	; 0x63
 8003702:	2b15      	cmp	r3, #21
 8003704:	d8f6      	bhi.n	80036f4 <_printf_i+0x28>
 8003706:	a101      	add	r1, pc, #4	; (adr r1, 800370c <_printf_i+0x40>)
 8003708:	f851 f023 	ldr.w	pc, [r1, r3, lsl #2]
 800370c:	08003765 	.word	0x08003765
 8003710:	08003779 	.word	0x08003779
 8003714:	080036f5 	.word	0x080036f5
 8003718:	080036f5 	.word	0x080036f5
 800371c:	080036f5 	.word	0x080036f5
 8003720:	080036f5 	.word	0x080036f5
 8003724:	08003779 	.word	0x08003779
 8003728:	080036f5 	.word	0x080036f5
 800372c:	080036f5 	.word	0x080036f5
 8003730:	080036f5 	.word	0x080036f5
 8003734:	080036f5 	.word	0x080036f5
 8003738:	08003887 	.word	0x08003887
 800373c:	080037a9 	.word	0x080037a9
 8003740:	08003869 	.word	0x08003869
 8003744:	080036f5 	.word	0x080036f5
 8003748:	080036f5 	.word	0x080036f5
 800374c:	080038a9 	.word	0x080038a9
 8003750:	080036f5 	.word	0x080036f5
 8003754:	080037a9 	.word	0x080037a9
 8003758:	080036f5 	.word	0x080036f5
 800375c:	080036f5 	.word	0x080036f5
 8003760:	08003871 	.word	0x08003871
 8003764:	682b      	ldr	r3, [r5, #0]
 8003766:	1d1a      	adds	r2, r3, #4
 8003768:	681b      	ldr	r3, [r3, #0]
 800376a:	602a      	str	r2, [r5, #0]
 800376c:	f104 0542 	add.w	r5, r4, #66	; 0x42
 8003770:	f884 3042 	strb.w	r3, [r4, #66]	; 0x42
 8003774:	2301      	movs	r3, #1
 8003776:	e0a4      	b.n	80038c2 <_printf_i+0x1f6>
 8003778:	6820      	ldr	r0, [r4, #0]
 800377a:	6829      	ldr	r1, [r5, #0]
 800377c:	0606      	lsls	r6, r0, #24
 800377e:	f101 0304 	add.w	r3, r1, #4
 8003782:	d50a      	bpl.n	800379a <_printf_i+0xce>
 8003784:	680e      	ldr	r6, [r1, #0]
 8003786:	602b      	str	r3, [r5, #0]
 8003788:	2e00      	cmp	r6, #0
 800378a:	da03      	bge.n	8003794 <_printf_i+0xc8>
 800378c:	232d      	movs	r3, #45	; 0x2d
 800378e:	4276      	negs	r6, r6
 8003790:	f884 3043 	strb.w	r3, [r4, #67]	; 0x43
 8003794:	230a      	movs	r3, #10
 8003796:	485e      	ldr	r0, [pc, #376]	; (8003910 <_printf_i+0x244>)
 8003798:	e019      	b.n	80037ce <_printf_i+0x102>
 800379a:	680e      	ldr	r6, [r1, #0]
 800379c:	f010 0f40 	tst.w	r0, #64	; 0x40
 80037a0:	602b      	str	r3, [r5, #0]
 80037a2:	bf18      	it	ne
 80037a4:	b236      	sxthne	r6, r6
 80037a6:	e7ef      	b.n	8003788 <_printf_i+0xbc>
 80037a8:	682b      	ldr	r3, [r5, #0]
 80037aa:	6820      	ldr	r0, [r4, #0]
 80037ac:	1d19      	adds	r1, r3, #4
 80037ae:	6029      	str	r1, [r5, #0]
 80037b0:	0601      	lsls	r1, r0, #24
 80037b2:	d501      	bpl.n	80037b8 <_printf_i+0xec>
 80037b4:	681e      	ldr	r6, [r3, #0]
 80037b6:	e002      	b.n	80037be <_printf_i+0xf2>
 80037b8:	0646      	lsls	r6, r0, #25
 80037ba:	d5fb      	bpl.n	80037b4 <_printf_i+0xe8>
 80037bc:	881e      	ldrh	r6, [r3, #0]
 80037be:	2f6f      	cmp	r7, #111	; 0x6f
 80037c0:	bf0c      	ite	eq
 80037c2:	2308      	moveq	r3, #8
 80037c4:	230a      	movne	r3, #10
 80037c6:	4852      	ldr	r0, [pc, #328]	; (8003910 <_printf_i+0x244>)
 80037c8:	2100      	movs	r1, #0
 80037ca:	f884 1043 	strb.w	r1, [r4, #67]	; 0x43
 80037ce:	6865      	ldr	r5, [r4, #4]
 80037d0:	2d00      	cmp	r5, #0
 80037d2:	bfa8      	it	ge
 80037d4:	6821      	ldrge	r1, [r4, #0]
 80037d6:	60a5      	str	r5, [r4, #8]
 80037d8:	bfa4      	itt	ge
 80037da:	f021 0104 	bicge.w	r1, r1, #4
 80037de:	6021      	strge	r1, [r4, #0]
 80037e0:	b90e      	cbnz	r6, 80037e6 <_printf_i+0x11a>
 80037e2:	2d00      	cmp	r5, #0
 80037e4:	d04d      	beq.n	8003882 <_printf_i+0x1b6>
 80037e6:	4615      	mov	r5, r2
 80037e8:	fbb6 f1f3 	udiv	r1, r6, r3
 80037ec:	fb03 6711 	mls	r7, r3, r1, r6
 80037f0:	5dc7      	ldrb	r7, [r0, r7]
 80037f2:	f805 7d01 	strb.w	r7, [r5, #-1]!
 80037f6:	4637      	mov	r7, r6
 80037f8:	42bb      	cmp	r3, r7
 80037fa:	460e      	mov	r6, r1
 80037fc:	d9f4      	bls.n	80037e8 <_printf_i+0x11c>
 80037fe:	2b08      	cmp	r3, #8
 8003800:	d10b      	bne.n	800381a <_printf_i+0x14e>
 8003802:	6823      	ldr	r3, [r4, #0]
 8003804:	07de      	lsls	r6, r3, #31
 8003806:	d508      	bpl.n	800381a <_printf_i+0x14e>
 8003808:	6923      	ldr	r3, [r4, #16]
 800380a:	6861      	ldr	r1, [r4, #4]
 800380c:	4299      	cmp	r1, r3
 800380e:	bfde      	ittt	le
 8003810:	2330      	movle	r3, #48	; 0x30
 8003812:	f805 3c01 	strble.w	r3, [r5, #-1]
 8003816:	f105 35ff 	addle.w	r5, r5, #4294967295
 800381a:	1b52      	subs	r2, r2, r5
 800381c:	6122      	str	r2, [r4, #16]
 800381e:	464b      	mov	r3, r9
 8003820:	4621      	mov	r1, r4
 8003822:	4640      	mov	r0, r8
 8003824:	f8cd a000 	str.w	sl, [sp]
 8003828:	aa03      	add	r2, sp, #12
 800382a:	f7ff fedf 	bl	80035ec <_printf_common>
 800382e:	3001      	adds	r0, #1
 8003830:	d14c      	bne.n	80038cc <_printf_i+0x200>
 8003832:	f04f 30ff 	mov.w	r0, #4294967295
 8003836:	b004      	add	sp, #16
 8003838:	e8bd 87f0 	ldmia.w	sp!, {r4, r5, r6, r7, r8, r9, sl, pc}
 800383c:	4834      	ldr	r0, [pc, #208]	; (8003910 <_printf_i+0x244>)
 800383e:	f881 7045 	strb.w	r7, [r1, #69]	; 0x45
 8003842:	6829      	ldr	r1, [r5, #0]
 8003844:	6823      	ldr	r3, [r4, #0]
 8003846:	f851 6b04 	ldr.w	r6, [r1], #4
 800384a:	6029      	str	r1, [r5, #0]
 800384c:	061d      	lsls	r5, r3, #24
 800384e:	d514      	bpl.n	800387a <_printf_i+0x1ae>
 8003850:	07df      	lsls	r7, r3, #31
 8003852:	bf44      	itt	mi
 8003854:	f043 0320 	orrmi.w	r3, r3, #32
 8003858:	6023      	strmi	r3, [r4, #0]
 800385a:	b91e      	cbnz	r6, 8003864 <_printf_i+0x198>
 800385c:	6823      	ldr	r3, [r4, #0]
 800385e:	f023 0320 	bic.w	r3, r3, #32
 8003862:	6023      	str	r3, [r4, #0]
 8003864:	2310      	movs	r3, #16
 8003866:	e7af      	b.n	80037c8 <_printf_i+0xfc>
 8003868:	6823      	ldr	r3, [r4, #0]
 800386a:	f043 0320 	orr.w	r3, r3, #32
 800386e:	6023      	str	r3, [r4, #0]
 8003870:	2378      	movs	r3, #120	; 0x78
 8003872:	4828      	ldr	r0, [pc, #160]	; (8003914 <_printf_i+0x248>)
 8003874:	f884 3045 	strb.w	r3, [r4, #69]	; 0x45
 8003878:	e7e3      	b.n	8003842 <_printf_i+0x176>
 800387a:	0659      	lsls	r1, r3, #25
 800387c:	bf48      	it	mi
 800387e:	b2b6      	uxthmi	r6, r6
 8003880:	e7e6      	b.n	8003850 <_printf_i+0x184>
 8003882:	4615      	mov	r5, r2
 8003884:	e7bb      	b.n	80037fe <_printf_i+0x132>
 8003886:	682b      	ldr	r3, [r5, #0]
 8003888:	6826      	ldr	r6, [r4, #0]
 800388a:	1d18      	adds	r0, r3, #4
 800388c:	6961      	ldr	r1, [r4, #20]
 800388e:	6028      	str	r0, [r5, #0]
 8003890:	0635      	lsls	r5, r6, #24
 8003892:	681b      	ldr	r3, [r3, #0]
 8003894:	d501      	bpl.n	800389a <_printf_i+0x1ce>
 8003896:	6019      	str	r1, [r3, #0]
 8003898:	e002      	b.n	80038a0 <_printf_i+0x1d4>
 800389a:	0670      	lsls	r0, r6, #25
 800389c:	d5fb      	bpl.n	8003896 <_printf_i+0x1ca>
 800389e:	8019      	strh	r1, [r3, #0]
 80038a0:	2300      	movs	r3, #0
 80038a2:	4615      	mov	r5, r2
 80038a4:	6123      	str	r3, [r4, #16]
 80038a6:	e7ba      	b.n	800381e <_printf_i+0x152>
 80038a8:	682b      	ldr	r3, [r5, #0]
 80038aa:	2100      	movs	r1, #0
 80038ac:	1d1a      	adds	r2, r3, #4
 80038ae:	602a      	str	r2, [r5, #0]
 80038b0:	681d      	ldr	r5, [r3, #0]
 80038b2:	6862      	ldr	r2, [r4, #4]
 80038b4:	4628      	mov	r0, r5
 80038b6:	f000 f831 	bl	800391c <memchr>
 80038ba:	b108      	cbz	r0, 80038c0 <_printf_i+0x1f4>
 80038bc:	1b40      	subs	r0, r0, r5
 80038be:	6060      	str	r0, [r4, #4]
 80038c0:	6863      	ldr	r3, [r4, #4]
 80038c2:	6123      	str	r3, [r4, #16]
 80038c4:	2300      	movs	r3, #0
 80038c6:	f884 3043 	strb.w	r3, [r4, #67]	; 0x43
 80038ca:	e7a8      	b.n	800381e <_printf_i+0x152>
 80038cc:	462a      	mov	r2, r5
 80038ce:	4649      	mov	r1, r9
 80038d0:	4640      	mov	r0, r8
 80038d2:	6923      	ldr	r3, [r4, #16]
 80038d4:	47d0      	blx	sl
 80038d6:	3001      	adds	r0, #1
 80038d8:	d0ab      	beq.n	8003832 <_printf_i+0x166>
 80038da:	6823      	ldr	r3, [r4, #0]
 80038dc:	079b      	lsls	r3, r3, #30
 80038de:	d413      	bmi.n	8003908 <_printf_i+0x23c>
 80038e0:	68e0      	ldr	r0, [r4, #12]
 80038e2:	9b03      	ldr	r3, [sp, #12]
 80038e4:	4298      	cmp	r0, r3
 80038e6:	bfb8      	it	lt
 80038e8:	4618      	movlt	r0, r3
 80038ea:	e7a4      	b.n	8003836 <_printf_i+0x16a>
 80038ec:	2301      	movs	r3, #1
 80038ee:	4632      	mov	r2, r6
 80038f0:	4649      	mov	r1, r9
 80038f2:	4640      	mov	r0, r8
 80038f4:	47d0      	blx	sl
 80038f6:	3001      	adds	r0, #1
 80038f8:	d09b      	beq.n	8003832 <_printf_i+0x166>
 80038fa:	3501      	adds	r5, #1
 80038fc:	68e3      	ldr	r3, [r4, #12]
 80038fe:	9903      	ldr	r1, [sp, #12]
 8003900:	1a5b      	subs	r3, r3, r1
 8003902:	42ab      	cmp	r3, r5
 8003904:	dcf2      	bgt.n	80038ec <_printf_i+0x220>
 8003906:	e7eb      	b.n	80038e0 <_printf_i+0x214>
 8003908:	2500      	movs	r5, #0
 800390a:	f104 0619 	add.w	r6, r4, #25
 800390e:	e7f5      	b.n	80038fc <_printf_i+0x230>
 8003910:	08003aab 	.word	0x08003aab
 8003914:	08003abc 	.word	0x08003abc

08003918 <__retarget_lock_acquire_recursive>:
 8003918:	4770      	bx	lr

0800391a <__retarget_lock_release_recursive>:
 800391a:	4770      	bx	lr

0800391c <memchr>:
 800391c:	4603      	mov	r3, r0
 800391e:	b510      	push	{r4, lr}
 8003920:	b2c9      	uxtb	r1, r1
 8003922:	4402      	add	r2, r0
 8003924:	4293      	cmp	r3, r2
 8003926:	4618      	mov	r0, r3
 8003928:	d101      	bne.n	800392e <memchr+0x12>
 800392a:	2000      	movs	r0, #0
 800392c:	e003      	b.n	8003936 <memchr+0x1a>
 800392e:	7804      	ldrb	r4, [r0, #0]
 8003930:	3301      	adds	r3, #1
 8003932:	428c      	cmp	r4, r1
 8003934:	d1f6      	bne.n	8003924 <memchr+0x8>
 8003936:	bd10      	pop	{r4, pc}

08003938 <memcpy>:
 8003938:	440a      	add	r2, r1
 800393a:	4291      	cmp	r1, r2
 800393c:	f100 33ff 	add.w	r3, r0, #4294967295
 8003940:	d100      	bne.n	8003944 <memcpy+0xc>
 8003942:	4770      	bx	lr
 8003944:	b510      	push	{r4, lr}
 8003946:	f811 4b01 	ldrb.w	r4, [r1], #1
 800394a:	4291      	cmp	r1, r2
 800394c:	f803 4f01 	strb.w	r4, [r3, #1]!
 8003950:	d1f9      	bne.n	8003946 <memcpy+0xe>
 8003952:	bd10      	pop	{r4, pc}

08003954 <memmove>:
 8003954:	4288      	cmp	r0, r1
 8003956:	b510      	push	{r4, lr}
 8003958:	eb01 0402 	add.w	r4, r1, r2
 800395c:	d902      	bls.n	8003964 <memmove+0x10>
 800395e:	4284      	cmp	r4, r0
 8003960:	4623      	mov	r3, r4
 8003962:	d807      	bhi.n	8003974 <memmove+0x20>
 8003964:	1e43      	subs	r3, r0, #1
 8003966:	42a1      	cmp	r1, r4
 8003968:	d008      	beq.n	800397c <memmove+0x28>
 800396a:	f811 2b01 	ldrb.w	r2, [r1], #1
 800396e:	f803 2f01 	strb.w	r2, [r3, #1]!
 8003972:	e7f8      	b.n	8003966 <memmove+0x12>
 8003974:	4601      	mov	r1, r0
 8003976:	4402      	add	r2, r0
 8003978:	428a      	cmp	r2, r1
 800397a:	d100      	bne.n	800397e <memmove+0x2a>
 800397c:	bd10      	pop	{r4, pc}
 800397e:	f813 4d01 	ldrb.w	r4, [r3, #-1]!
 8003982:	f802 4d01 	strb.w	r4, [r2, #-1]!
 8003986:	e7f7      	b.n	8003978 <memmove+0x24>

08003988 <_realloc_r>:
 8003988:	e92d 41f0 	stmdb	sp!, {r4, r5, r6, r7, r8, lr}
 800398c:	4680      	mov	r8, r0
 800398e:	4614      	mov	r4, r2
 8003990:	460e      	mov	r6, r1
 8003992:	b921      	cbnz	r1, 800399e <_realloc_r+0x16>
 8003994:	4611      	mov	r1, r2
 8003996:	e8bd 41f0 	ldmia.w	sp!, {r4, r5, r6, r7, r8, lr}
 800399a:	f7ff bc1b 	b.w	80031d4 <_malloc_r>
 800399e:	b92a      	cbnz	r2, 80039ac <_realloc_r+0x24>
 80039a0:	f7ff fbb0 	bl	8003104 <_free_r>
 80039a4:	4625      	mov	r5, r4
 80039a6:	4628      	mov	r0, r5
 80039a8:	e8bd 81f0 	ldmia.w	sp!, {r4, r5, r6, r7, r8, pc}
 80039ac:	f000 f81b 	bl	80039e6 <_malloc_usable_size_r>
 80039b0:	4284      	cmp	r4, r0
 80039b2:	4607      	mov	r7, r0
 80039b4:	d802      	bhi.n	80039bc <_realloc_r+0x34>
 80039b6:	ebb4 0f50 	cmp.w	r4, r0, lsr #1
 80039ba:	d812      	bhi.n	80039e2 <_realloc_r+0x5a>
 80039bc:	4621      	mov	r1, r4
 80039be:	4640      	mov	r0, r8
 80039c0:	f7ff fc08 	bl	80031d4 <_malloc_r>
 80039c4:	4605      	mov	r5, r0
 80039c6:	2800      	cmp	r0, #0
 80039c8:	d0ed      	beq.n	80039a6 <_realloc_r+0x1e>
 80039ca:	42bc      	cmp	r4, r7
 80039cc:	4622      	mov	r2, r4
 80039ce:	4631      	mov	r1, r6
 80039d0:	bf28      	it	cs
 80039d2:	463a      	movcs	r2, r7
 80039d4:	f7ff ffb0 	bl	8003938 <memcpy>
 80039d8:	4631      	mov	r1, r6
 80039da:	4640      	mov	r0, r8
 80039dc:	f7ff fb92 	bl	8003104 <_free_r>
 80039e0:	e7e1      	b.n	80039a6 <_realloc_r+0x1e>
 80039e2:	4635      	mov	r5, r6
 80039e4:	e7df      	b.n	80039a6 <_realloc_r+0x1e>

080039e6 <_malloc_usable_size_r>:
 80039e6:	f851 3c04 	ldr.w	r3, [r1, #-4]
 80039ea:	1f18      	subs	r0, r3, #4
 80039ec:	2b00      	cmp	r3, #0
 80039ee:	bfbc      	itt	lt
 80039f0:	580b      	ldrlt	r3, [r1, r0]
 80039f2:	18c0      	addlt	r0, r0, r3
 80039f4:	4770      	bx	lr
	...

080039f8 <_init>:
 80039f8:	b5f8      	push	{r3, r4, r5, r6, r7, lr}
 80039fa:	bf00      	nop
 80039fc:	bcf8      	pop	{r3, r4, r5, r6, r7}
 80039fe:	bc08      	pop	{r3}
 8003a00:	469e      	mov	lr, r3
 8003a02:	4770      	bx	lr

08003a04 <_fini>:
 8003a04:	b5f8      	push	{r3, r4, r5, r6, r7, lr}
 8003a06:	bf00      	nop
 8003a08:	bcf8      	pop	{r3, r4, r5, r6, r7}
 8003a0a:	bc08      	pop	{r3}
 8003a0c:	469e      	mov	lr, r3
 8003a0e:	4770      	bx	lr
